
phase4.o:     file format elf32-i386


Disassembly of section .text:

00000000 <nndZqWCYPw>:
   0:	55                   	push   %ebp
   1:	89 e5                	mov    %esp,%ebp
   3:	83 ec 30             	sub    $0x30,%esp
   6:	c7 45 dc 66 6c 6c 69 	movl   $0x696c6c66,-0x24(%ebp)
   d:	c7 45 e0 54 6f 68 66 	movl   $0x66686f54,-0x20(%ebp)
  14:	c7 45 e4 48 46 74 79 	movl   $0x79744648,-0x1c(%ebp)
  1b:	c7 45 e8 4b 48 6f 7a 	movl   $0x7a6f484b,-0x18(%ebp)
  22:	c7 45 ec 52 68 63 45 	movl   $0x45636852,-0x14(%ebp)
  29:	c7 45 f0 6d 57 4d 47 	movl   $0x474d576d,-0x10(%ebp)
  30:	c7 45 f4 59 41 44 71 	movl   $0x71444159,-0xc(%ebp)
  37:	c7 45 f8 52 71 63 00 	movl   $0x637152,-0x8(%ebp)
  3e:	c7 45 fc 20 00 00 00 	movl   $0x20,-0x4(%ebp)
  45:	83 7d 08 00          	cmpl   $0x0,0x8(%ebp)
  49:	78 15                	js     60 <nndZqWCYPw+0x60>
  4b:	8b 45 08             	mov    0x8(%ebp),%eax
  4e:	3b 45 fc             	cmp    -0x4(%ebp),%eax
  51:	7d 0d                	jge    60 <nndZqWCYPw+0x60>
  53:	8d 55 dc             	lea    -0x24(%ebp),%edx
  56:	8b 45 08             	mov    0x8(%ebp),%eax
  59:	01 d0                	add    %edx,%eax
  5b:	0f b6 00             	movzbl (%eax),%eax
  5e:	eb 05                	jmp    65 <nndZqWCYPw+0x65>
  60:	b8 00 00 00 00       	mov    $0x0,%eax
  65:	c9                   	leave  
  66:	c3                   	ret    

00000067 <transform_code>:
  67:	55                   	push   %ebp
  68:	89 e5                	mov    %esp,%ebp
  6a:	8b 45 0c             	mov    0xc(%ebp),%eax

  6d:	8b 04 85 00 00 00 00 	mov    0x0(,%eax,4),%eax //

  74:	83 e0 07             	and    $0x7,%eax
  77:	83 f8 07             	cmp    $0x7,%eax
  7a:	77 74                	ja     f0 <transform_code+0x89>

  7c:	8b 04 85 60 00 00 00 	mov    0x60(,%eax,4),%eax //.rodata+0x60

  83:	ff e0                	jmp    *%eax
  85:	f7 55 08             	notl   0x8(%ebp)
  88:	eb 6a                	jmp    f4 <transform_code+0x8d>
  8a:	8b 45 0c             	mov    0xc(%ebp),%eax

  8d:	8b 04 85 00 00 00 00 	mov    0x0(,%eax,4),%eax //

  94:	83 e0 03             	and    $0x3,%eax
  97:	89 c1                	mov    %eax,%ecx
  99:	d3 7d 08             	sarl   %cl,0x8(%ebp)
  9c:	eb 56                	jmp    f4 <transform_code+0x8d>
  9e:	8b 45 0c             	mov    0xc(%ebp),%eax
  
  a1:	8b 04 85 00 00 00 00 	mov    0x0(,%eax,4),%eax //

  a8:	f7 d0                	not    %eax
  aa:	21 45 08             	and    %eax,0x8(%ebp)
  ad:	eb 45                	jmp    f4 <transform_code+0x8d>
  af:	8b 45 0c             	mov    0xc(%ebp),%eax
  
  b2:	8b 04 85 00 00 00 00 	mov    0x0(,%eax,4),%eax  //CMKbeL

  b9:	c1 e0 08             	shl    $0x8,%eax
  bc:	09 45 08             	or     %eax,0x8(%ebp)
  bf:	eb 33                	jmp    f4 <transform_code+0x8d>
  c1:	8b 45 0c             	mov    0xc(%ebp),%eax
  c4:	8b 04 85 00 00 00 00 	mov    0x0(,%eax,4),%eax
  cb:	31 45 08             	xor    %eax,0x8(%ebp)
  ce:	eb 24                	jmp    f4 <transform_code+0x8d>
  d0:	8b 45 0c             	mov    0xc(%ebp),%eax
  d3:	8b 04 85 00 00 00 00 	mov    0x0(,%eax,4),%eax
  da:	f7 d0                	not    %eax
  dc:	09 45 08             	or     %eax,0x8(%ebp)
  df:	eb 13                	jmp    f4 <transform_code+0x8d>
  e1:	8b 45 0c             	mov    0xc(%ebp),%eax
  e4:	8b 04 85 00 00 00 00 	mov    0x0(,%eax,4),%eax
  eb:	01 45 08             	add    %eax,0x8(%ebp)
  ee:	eb 04                	jmp    f4 <transform_code+0x8d>
  f0:	f7 5d 08             	negl   0x8(%ebp)
  f3:	90                   	nop
  f4:	8b 45 08             	mov    0x8(%ebp),%eax
  f7:	5d                   	pop    %ebp
  f8:	c3                   	ret    

000000f9 <generate_code>:
  f9:	55                   	push   %ebp
  fa:	89 e5                	mov    %esp,%ebp
  fc:	83 ec 10             	sub    $0x10,%esp
  ff:	8b 45 08             	mov    0x8(%ebp),%eax

 102:	a3 00 00 00 00       	mov    %eax,0x0  //vvWaVK

 107:	c7 45 fc 00 00 00 00 	movl   $0x0,-0x4(%ebp)
 10e:	eb 1a                	jmp    12a <generate_code+0x31> 

 110:	a1 00 00 00 00       	mov    0x0,%eax //

 115:	ff 75 fc             	pushl  -0x4(%ebp)
 118:	50                   	push   %eax
 119:	e8 fc ff ff ff       	call   11a <generate_code+0x21> //
 11e:	83 c4 08             	add    $0x8,%esp

 121:	a3 00 00 00 00       	mov    %eax,0x0 // vvWaVK

 126:	83 45 fc 01          	addl   $0x1,-0x4(%ebp)
 12a:	8b 45 fc             	mov    -0x4(%ebp),%eax
 12d:	83 f8 0f             	cmp    $0xf,%eax
 130:	76 de                	jbe    110 <generate_code+0x17>
 132:	90                   	nop
 133:	c9                   	leave  
 134:	c3                   	ret    

00000135 <encode_1>:
 135:	55                   	push   %ebp
 136:	89 e5                	mov    %esp,%ebp
 138:	83 ec 18             	sub    $0x18,%esp
 13b:	83 ec 0c             	sub    $0xc,%esp
 13e:	ff 75 08             	pushl  0x8(%ebp)
 141:	e8 fc ff ff ff       	call   142 <encode_1+0xd>
 146:	83 c4 10             	add    $0x10,%esp
 149:	89 45 f0             	mov    %eax,-0x10(%ebp)
 14c:	c7 45 f4 00 00 00 00 	movl   $0x0,-0xc(%ebp)
 153:	eb 5b                	jmp    1b0 <encode_1+0x7b>
 155:	8b 55 f4             	mov    -0xc(%ebp),%edx
 158:	8b 45 08             	mov    0x8(%ebp),%eax
 15b:	01 d0                	add    %edx,%eax
 15d:	0f b6 00             	movzbl (%eax),%eax
 160:	0f be c0             	movsbl %al,%eax
 163:	0f b6 80 00 00 00 00 	movzbl 0x0(%eax),%eax
 16a:	8b 15 00 00 00 00    	mov    0x0,%edx
 170:	31 d0                	xor    %edx,%eax
 172:	89 c1                	mov    %eax,%ecx
 174:	8b 55 f4             	mov    -0xc(%ebp),%edx
 177:	8b 45 08             	mov    0x8(%ebp),%eax
 17a:	01 d0                	add    %edx,%eax
 17c:	83 e1 7f             	and    $0x7f,%ecx
 17f:	89 ca                	mov    %ecx,%edx
 181:	88 10                	mov    %dl,(%eax)
 183:	8b 55 f4             	mov    -0xc(%ebp),%edx
 186:	8b 45 08             	mov    0x8(%ebp),%eax
 189:	01 d0                	add    %edx,%eax
 18b:	0f b6 00             	movzbl (%eax),%eax
 18e:	3c 1f                	cmp    $0x1f,%al
 190:	7e 0f                	jle    1a1 <encode_1+0x6c>
 192:	8b 55 f4             	mov    -0xc(%ebp),%edx
 195:	8b 45 08             	mov    0x8(%ebp),%eax
 198:	01 d0                	add    %edx,%eax
 19a:	0f b6 00             	movzbl (%eax),%eax
 19d:	3c 7f                	cmp    $0x7f,%al
 19f:	75 0b                	jne    1ac <encode_1+0x77>
 1a1:	8b 55 f4             	mov    -0xc(%ebp),%edx
 1a4:	8b 45 08             	mov    0x8(%ebp),%eax
 1a7:	01 d0                	add    %edx,%eax
 1a9:	c6 00 3f             	movb   $0x3f,(%eax)
 1ac:	83 45 f4 01          	addl   $0x1,-0xc(%ebp)
 1b0:	8b 45 f4             	mov    -0xc(%ebp),%eax
 1b3:	3b 45 f0             	cmp    -0x10(%ebp),%eax
 1b6:	7c 9d                	jl     155 <encode_1+0x20>
 1b8:	8b 45 f0             	mov    -0x10(%ebp),%eax
 1bb:	c9                   	leave  
 1bc:	c3                   	ret    

000001bd <encode_2>:
 1bd:	55                   	push   %ebp
 1be:	89 e5                	mov    %esp,%ebp
 1c0:	83 ec 18             	sub    $0x18,%esp
 1c3:	83 ec 0c             	sub    $0xc,%esp
 1c6:	ff 75 08             	pushl  0x8(%ebp)
 1c9:	e8 fc ff ff ff       	call   1ca <encode_2+0xd>
 1ce:	83 c4 10             	add    $0x10,%esp
 1d1:	89 45 f0             	mov    %eax,-0x10(%ebp)
 1d4:	c7 45 f4 00 00 00 00 	movl   $0x0,-0xc(%ebp)
 1db:	eb 5a                	jmp    237 <encode_2+0x7a>
 1dd:	8b 55 f4             	mov    -0xc(%ebp),%edx
 1e0:	8b 45 08             	mov    0x8(%ebp),%eax
 1e3:	01 d0                	add    %edx,%eax
 1e5:	0f b6 00             	movzbl (%eax),%eax
 1e8:	0f be c0             	movsbl %al,%eax
 1eb:	0f b6 80 00 00 00 00 	movzbl 0x0(%eax),%eax

 1f2:	8b 15 00 00 00 00    	mov    0x0,%edx   // vvWaVk+0x0

 1f8:	8d 0c 10             	lea    (%eax,%edx,1),%ecx
 1fb:	8b 55 f4             	mov    -0xc(%ebp),%edx
 1fe:	8b 45 08             	mov    0x8(%ebp),%eax
 201:	01 d0                	add    %edx,%eax
 203:	83 e1 7f             	and    $0x7f,%ecx
 206:	89 ca                	mov    %ecx,%edx
 208:	88 10                	mov    %dl,(%eax)
 20a:	8b 55 f4             	mov    -0xc(%ebp),%edx
 20d:	8b 45 08             	mov    0x8(%ebp),%eax
 210:	01 d0                	add    %edx,%eax
 212:	0f b6 00             	movzbl (%eax),%eax
 215:	3c 1f                	cmp    $0x1f,%al
 217:	7e 0f                	jle    228 <encode_2+0x6b>
 219:	8b 55 f4             	mov    -0xc(%ebp),%edx
 21c:	8b 45 08             	mov    0x8(%ebp),%eax
 21f:	01 d0                	add    %edx,%eax
 221:	0f b6 00             	movzbl (%eax),%eax
 224:	3c 7f                	cmp    $0x7f,%al
 226:	75 0b                	jne    233 <encode_2+0x76>
 228:	8b 55 f4             	mov    -0xc(%ebp),%edx
 22b:	8b 45 08             	mov    0x8(%ebp),%eax
 22e:	01 d0                	add    %edx,%eax
 230:	c6 00 2a             	movb   $0x2a,(%eax)
 233:	83 45 f4 01          	addl   $0x1,-0xc(%ebp)
 237:	8b 45 f4             	mov    -0xc(%ebp),%eax
 23a:	3b 45 f0             	cmp    -0x10(%ebp),%eax
 23d:	7c 9e                	jl     1dd <encode_2+0x20>
 23f:	8b 45 f0             	mov    -0x10(%ebp),%eax
 242:	c9                   	leave  
 243:	c3                   	ret    

00000244 <do_phase>:
 244:	55                   	push   %ebp
 245:	89 e5                	mov    %esp,%ebp
 247:	83 ec 08             	sub    $0x8,%esp
 24a:	68 d1 00 00 00       	push   $0xd1
 24f:	e8 fc ff ff ff       	call   250 <do_phase+0xc> //
 254:	83 c4 04             	add    $0x4,%esp

 257:	a1 00 00 00 00       	mov    0x0,%eax //encoder+0x0

 25c:	83 ec 0c             	sub    $0xc,%esp
 25f:	68 00 00 00 00       	push   $0x0
 264:	ff d0                	call   *%eax
 266:	83 c4 10             	add    $0x10,%esp
 269:	83 ec 0c             	sub    $0xc,%esp
 26c:	68 00 00 00 00       	push   $0x0
 271:	e8 fc ff ff ff       	call   272 <do_phase+0x2e> //puts
 276:	83 c4 10             	add    $0x10,%esp
 279:	90                   	nop
 27a:	c9                   	leave  
 27b:	c3                   	ret    
