
hanoi-nr:     file format elf64-x86-64


Disassembly of section .init:

0000000000001000 <_init>:
    1000:	f3 0f 1e fa          	endbr64 
    1004:	48 83 ec 08          	sub    $0x8,%rsp
    1008:	48 8b 05 d9 2f 00 00 	mov    0x2fd9(%rip),%rax        # 3fe8 <__gmon_start__>
    100f:	48 85 c0             	test   %rax,%rax
    1012:	74 02                	je     1016 <_init+0x16>
    1014:	ff d0                	callq  *%rax
    1016:	48 83 c4 08          	add    $0x8,%rsp
    101a:	c3                   	retq   

Disassembly of section .plt:

0000000000001020 <.plt>:
    1020:	ff 35 8a 2f 00 00    	pushq  0x2f8a(%rip)        # 3fb0 <_GLOBAL_OFFSET_TABLE_+0x8>
    1026:	f2 ff 25 8b 2f 00 00 	bnd jmpq *0x2f8b(%rip)        # 3fb8 <_GLOBAL_OFFSET_TABLE_+0x10>
    102d:	0f 1f 00             	nopl   (%rax)
    1030:	f3 0f 1e fa          	endbr64 
    1034:	68 00 00 00 00       	pushq  $0x0
    1039:	f2 e9 e1 ff ff ff    	bnd jmpq 1020 <.plt>
    103f:	90                   	nop
    1040:	f3 0f 1e fa          	endbr64 
    1044:	68 01 00 00 00       	pushq  $0x1
    1049:	f2 e9 d1 ff ff ff    	bnd jmpq 1020 <.plt>
    104f:	90                   	nop
    1050:	f3 0f 1e fa          	endbr64 
    1054:	68 02 00 00 00       	pushq  $0x2
    1059:	f2 e9 c1 ff ff ff    	bnd jmpq 1020 <.plt>
    105f:	90                   	nop

Disassembly of section .plt.got:

0000000000001060 <__cxa_finalize@plt>:
    1060:	f3 0f 1e fa          	endbr64 
    1064:	f2 ff 25 8d 2f 00 00 	bnd jmpq *0x2f8d(%rip)        # 3ff8 <__cxa_finalize@GLIBC_2.2.5>
    106b:	0f 1f 44 00 00       	nopl   0x0(%rax,%rax,1)

Disassembly of section .plt.sec:

0000000000001070 <__stack_chk_fail@plt>:
    1070:	f3 0f 1e fa          	endbr64 
    1074:	f2 ff 25 45 2f 00 00 	bnd jmpq *0x2f45(%rip)        # 3fc0 <__stack_chk_fail@GLIBC_2.4>
    107b:	0f 1f 44 00 00       	nopl   0x0(%rax,%rax,1)

0000000000001080 <printf@plt>:
    1080:	f3 0f 1e fa          	endbr64 
    1084:	f2 ff 25 3d 2f 00 00 	bnd jmpq *0x2f3d(%rip)        # 3fc8 <printf@GLIBC_2.2.5>
    108b:	0f 1f 44 00 00       	nopl   0x0(%rax,%rax,1)

0000000000001090 <__assert_fail@plt>:
    1090:	f3 0f 1e fa          	endbr64 
    1094:	f2 ff 25 35 2f 00 00 	bnd jmpq *0x2f35(%rip)        # 3fd0 <__assert_fail@GLIBC_2.2.5>
    109b:	0f 1f 44 00 00       	nopl   0x0(%rax,%rax,1)

Disassembly of section .text:

00000000000010a0 <_start>:
    10a0:	f3 0f 1e fa          	endbr64 
    10a4:	31 ed                	xor    %ebp,%ebp
    10a6:	49 89 d1             	mov    %rdx,%r9
    10a9:	5e                   	pop    %rsi
    10aa:	48 89 e2             	mov    %rsp,%rdx
    10ad:	48 83 e4 f0          	and    $0xfffffffffffffff0,%rsp
    10b1:	50                   	push   %rax
    10b2:	54                   	push   %rsp
    10b3:	4c 8d 05 c6 04 00 00 	lea    0x4c6(%rip),%r8        # 1580 <__libc_csu_fini>
    10ba:	48 8d 0d 4f 04 00 00 	lea    0x44f(%rip),%rcx        # 1510 <__libc_csu_init>
    10c1:	48 8d 3d 1a 04 00 00 	lea    0x41a(%rip),%rdi        # 14e2 <main>
    10c8:	ff 15 12 2f 00 00    	callq  *0x2f12(%rip)        # 3fe0 <__libc_start_main@GLIBC_2.2.5>
    10ce:	f4                   	hlt    
    10cf:	90                   	nop

00000000000010d0 <deregister_tm_clones>:
    10d0:	48 8d 3d 39 2f 00 00 	lea    0x2f39(%rip),%rdi        # 4010 <__TMC_END__>
    10d7:	48 8d 05 32 2f 00 00 	lea    0x2f32(%rip),%rax        # 4010 <__TMC_END__>
    10de:	48 39 f8             	cmp    %rdi,%rax
    10e1:	74 15                	je     10f8 <deregister_tm_clones+0x28>
    10e3:	48 8b 05 ee 2e 00 00 	mov    0x2eee(%rip),%rax        # 3fd8 <_ITM_deregisterTMCloneTable>
    10ea:	48 85 c0             	test   %rax,%rax
    10ed:	74 09                	je     10f8 <deregister_tm_clones+0x28>
    10ef:	ff e0                	jmpq   *%rax
    10f1:	0f 1f 80 00 00 00 00 	nopl   0x0(%rax)
    10f8:	c3                   	retq   
    10f9:	0f 1f 80 00 00 00 00 	nopl   0x0(%rax)

0000000000001100 <register_tm_clones>:
    1100:	48 8d 3d 09 2f 00 00 	lea    0x2f09(%rip),%rdi        # 4010 <__TMC_END__>
    1107:	48 8d 35 02 2f 00 00 	lea    0x2f02(%rip),%rsi        # 4010 <__TMC_END__>
    110e:	48 29 fe             	sub    %rdi,%rsi
    1111:	48 89 f0             	mov    %rsi,%rax
    1114:	48 c1 ee 3f          	shr    $0x3f,%rsi
    1118:	48 c1 f8 03          	sar    $0x3,%rax
    111c:	48 01 c6             	add    %rax,%rsi
    111f:	48 d1 fe             	sar    %rsi
    1122:	74 14                	je     1138 <register_tm_clones+0x38>
    1124:	48 8b 05 c5 2e 00 00 	mov    0x2ec5(%rip),%rax        # 3ff0 <_ITM_registerTMCloneTable>
    112b:	48 85 c0             	test   %rax,%rax
    112e:	74 08                	je     1138 <register_tm_clones+0x38>
    1130:	ff e0                	jmpq   *%rax
    1132:	66 0f 1f 44 00 00    	nopw   0x0(%rax,%rax,1)
    1138:	c3                   	retq   
    1139:	0f 1f 80 00 00 00 00 	nopl   0x0(%rax)

0000000000001140 <__do_global_dtors_aux>:
    1140:	f3 0f 1e fa          	endbr64 
    1144:	80 3d c5 2e 00 00 00 	cmpb   $0x0,0x2ec5(%rip)        # 4010 <__TMC_END__>
    114b:	75 2b                	jne    1178 <__do_global_dtors_aux+0x38>
    114d:	55                   	push   %rbp
    114e:	48 83 3d a2 2e 00 00 	cmpq   $0x0,0x2ea2(%rip)        # 3ff8 <__cxa_finalize@GLIBC_2.2.5>
    1155:	00 
    1156:	48 89 e5             	mov    %rsp,%rbp
    1159:	74 0c                	je     1167 <__do_global_dtors_aux+0x27>
    115b:	48 8b 3d a6 2e 00 00 	mov    0x2ea6(%rip),%rdi        # 4008 <__dso_handle>
    1162:	e8 f9 fe ff ff       	callq  1060 <__cxa_finalize@plt>
    1167:	e8 64 ff ff ff       	callq  10d0 <deregister_tm_clones>
    116c:	c6 05 9d 2e 00 00 01 	movb   $0x1,0x2e9d(%rip)        # 4010 <__TMC_END__>
    1173:	5d                   	pop    %rbp
    1174:	c3                   	retq   
    1175:	0f 1f 00             	nopl   (%rax)
    1178:	c3                   	retq   
    1179:	0f 1f 80 00 00 00 00 	nopl   0x0(%rax)

0000000000001180 <frame_dummy>:
    1180:	f3 0f 1e fa          	endbr64 
    1184:	e9 77 ff ff ff       	jmpq   1100 <register_tm_clones>

0000000000001189 <hanoi>:
    1189:	f3 0f 1e fa          	endbr64 
    118d:	55                   	push   %rbp
    118e:	48 89 e5             	mov    %rsp,%rbp
    1191:	48 81 ec 60 03 00 00 	sub    $0x360,%rsp
    1198:	89 bd ac fc ff ff    	mov    %edi,-0x354(%rbp)
    119e:	89 c8                	mov    %ecx,%eax
    11a0:	89 f1                	mov    %esi,%ecx
    11a2:	88 8d a8 fc ff ff    	mov    %cl,-0x358(%rbp)
    11a8:	88 95 a4 fc ff ff    	mov    %dl,-0x35c(%rbp)
    11ae:	88 85 a0 fc ff ff    	mov    %al,-0x360(%rbp)
    11b4:	64 48 8b 04 25 28 00 	mov    %fs:0x28,%rax
    11bb:	00 00 
    11bd:	48 89 45 f8          	mov    %rax,-0x8(%rbp)
    11c1:	31 c0                	xor    %eax,%eax
    11c3:	48 8d 85 f0 fc ff ff 	lea    -0x310(%rbp),%rax
    11ca:	48 83 e8 0c          	sub    $0xc,%rax
    11ce:	48 89 85 b0 fc ff ff 	mov    %rax,-0x350(%rbp)
    11d5:	48 83 85 b0 fc ff ff 	addq   $0xc,-0x350(%rbp)
    11dc:	0c 
    11dd:	48 8b 85 b0 fc ff ff 	mov    -0x350(%rbp),%rax
    11e4:	c7 00 00 00 00 00    	movl   $0x0,(%rax)
    11ea:	48 8b 85 b0 fc ff ff 	mov    -0x350(%rbp),%rax
    11f1:	8b 95 ac fc ff ff    	mov    -0x354(%rbp),%edx
    11f7:	89 50 04             	mov    %edx,0x4(%rax)
    11fa:	48 8b 85 b0 fc ff ff 	mov    -0x350(%rbp),%rax
    1201:	0f b6 95 a8 fc ff ff 	movzbl -0x358(%rbp),%edx
    1208:	88 50 08             	mov    %dl,0x8(%rax)
    120b:	48 8b 85 b0 fc ff ff 	mov    -0x350(%rbp),%rax
    1212:	0f b6 95 a4 fc ff ff 	movzbl -0x35c(%rbp),%edx
    1219:	88 50 09             	mov    %dl,0x9(%rax)
    121c:	48 8b 85 b0 fc ff ff 	mov    -0x350(%rbp),%rax
    1223:	0f b6 95 a0 fc ff ff 	movzbl -0x360(%rbp),%edx
    122a:	88 50 0a             	mov    %dl,0xa(%rax)
    122d:	48 8b 85 b0 fc ff ff 	mov    -0x350(%rbp),%rax
    1234:	48 8b 10             	mov    (%rax),%rdx
    1237:	48 89 95 c0 fc ff ff 	mov    %rdx,-0x340(%rbp)
    123e:	8b 40 08             	mov    0x8(%rax),%eax
    1241:	89 85 c8 fc ff ff    	mov    %eax,-0x338(%rbp)
    1247:	e9 5d 02 00 00       	jmpq   14a9 <hanoi+0x320>
    124c:	48 8b 85 b8 fc ff ff 	mov    -0x348(%rbp),%rax
    1253:	8b 00                	mov    (%rax),%eax
    1255:	83 f8 04             	cmp    $0x4,%eax
    1258:	0f 87 16 02 00 00    	ja     1474 <hanoi+0x2eb>
    125e:	89 c0                	mov    %eax,%eax
    1260:	48 8d 14 85 00 00 00 	lea    0x0(,%rax,4),%rdx
    1267:	00 
    1268:	48 8d 05 ad 0d 00 00 	lea    0xdad(%rip),%rax        # 201c <_IO_stdin_used+0x1c>
    126f:	8b 04 02             	mov    (%rdx,%rax,1),%eax
    1272:	48 98                	cltq   
    1274:	48 8d 15 a1 0d 00 00 	lea    0xda1(%rip),%rdx        # 201c <_IO_stdin_used+0x1c>
    127b:	48 01 d0             	add    %rdx,%rax
    127e:	3e ff e0             	notrack jmpq *%rax
    1281:	48 8b 85 b8 fc ff ff 	mov    -0x348(%rbp),%rax
    1288:	8b 40 04             	mov    0x4(%rax),%eax
    128b:	83 f8 01             	cmp    $0x1,%eax
    128e:	0f 85 ff 01 00 00    	jne    1493 <hanoi+0x30a>
    1294:	48 8b 85 b8 fc ff ff 	mov    -0x348(%rbp),%rax
    129b:	0f b6 40 09          	movzbl 0x9(%rax),%eax
    129f:	0f be d0             	movsbl %al,%edx
    12a2:	48 8b 85 b8 fc ff ff 	mov    -0x348(%rbp),%rax
    12a9:	0f b6 40 08          	movzbl 0x8(%rax),%eax
    12ad:	0f be c0             	movsbl %al,%eax
    12b0:	89 c6                	mov    %eax,%esi
    12b2:	48 8d 3d 4b 0d 00 00 	lea    0xd4b(%rip),%rdi        # 2004 <_IO_stdin_used+0x4>
    12b9:	b8 00 00 00 00       	mov    $0x0,%eax
    12be:	e8 bd fd ff ff       	callq  1080 <printf@plt>
    12c3:	48 8b 85 b8 fc ff ff 	mov    -0x348(%rbp),%rax
    12ca:	c7 00 03 00 00 00    	movl   $0x3,(%rax)
    12d0:	e9 be 01 00 00       	jmpq   1493 <hanoi+0x30a>
    12d5:	48 83 85 b0 fc ff ff 	addq   $0xc,-0x350(%rbp)
    12dc:	0c 
    12dd:	48 8b 85 b8 fc ff ff 	mov    -0x348(%rbp),%rax
    12e4:	8b 40 04             	mov    0x4(%rax),%eax
    12e7:	8d 78 ff             	lea    -0x1(%rax),%edi
    12ea:	48 8b 85 b8 fc ff ff 	mov    -0x348(%rbp),%rax
    12f1:	0f b6 70 08          	movzbl 0x8(%rax),%esi
    12f5:	48 8b 85 b8 fc ff ff 	mov    -0x348(%rbp),%rax
    12fc:	0f b6 48 0a          	movzbl 0xa(%rax),%ecx
    1300:	48 8b 85 b8 fc ff ff 	mov    -0x348(%rbp),%rax
    1307:	0f b6 50 09          	movzbl 0x9(%rax),%edx
    130b:	48 8b 85 b0 fc ff ff 	mov    -0x350(%rbp),%rax
    1312:	c7 00 00 00 00 00    	movl   $0x0,(%rax)
    1318:	48 8b 85 b0 fc ff ff 	mov    -0x350(%rbp),%rax
    131f:	89 78 04             	mov    %edi,0x4(%rax)
    1322:	48 8b 85 b0 fc ff ff 	mov    -0x350(%rbp),%rax
    1329:	40 88 70 08          	mov    %sil,0x8(%rax)
    132d:	48 8b 85 b0 fc ff ff 	mov    -0x350(%rbp),%rax
    1334:	88 48 09             	mov    %cl,0x9(%rax)
    1337:	48 8b 85 b0 fc ff ff 	mov    -0x350(%rbp),%rax
    133e:	88 50 0a             	mov    %dl,0xa(%rax)
    1341:	48 8b 85 b0 fc ff ff 	mov    -0x350(%rbp),%rax
    1348:	48 8b 10             	mov    (%rax),%rdx
    134b:	48 89 95 cc fc ff ff 	mov    %rdx,-0x334(%rbp)
    1352:	8b 40 08             	mov    0x8(%rax),%eax
    1355:	89 85 d4 fc ff ff    	mov    %eax,-0x32c(%rbp)
    135b:	e9 34 01 00 00       	jmpq   1494 <hanoi+0x30b>
    1360:	48 83 85 b0 fc ff ff 	addq   $0xc,-0x350(%rbp)
    1367:	0c 
    1368:	48 8b 85 b8 fc ff ff 	mov    -0x348(%rbp),%rax
    136f:	0f b6 70 08          	movzbl 0x8(%rax),%esi
    1373:	48 8b 85 b8 fc ff ff 	mov    -0x348(%rbp),%rax
    137a:	0f b6 48 09          	movzbl 0x9(%rax),%ecx
    137e:	48 8b 85 b8 fc ff ff 	mov    -0x348(%rbp),%rax
    1385:	0f b6 50 0a          	movzbl 0xa(%rax),%edx
    1389:	48 8b 85 b0 fc ff ff 	mov    -0x350(%rbp),%rax
    1390:	c7 00 00 00 00 00    	movl   $0x0,(%rax)
    1396:	48 8b 85 b0 fc ff ff 	mov    -0x350(%rbp),%rax
    139d:	c7 40 04 01 00 00 00 	movl   $0x1,0x4(%rax)
    13a4:	48 8b 85 b0 fc ff ff 	mov    -0x350(%rbp),%rax
    13ab:	40 88 70 08          	mov    %sil,0x8(%rax)
    13af:	48 8b 85 b0 fc ff ff 	mov    -0x350(%rbp),%rax
    13b6:	88 48 09             	mov    %cl,0x9(%rax)
    13b9:	48 8b 85 b0 fc ff ff 	mov    -0x350(%rbp),%rax
    13c0:	88 50 0a             	mov    %dl,0xa(%rax)
    13c3:	48 8b 85 b0 fc ff ff 	mov    -0x350(%rbp),%rax
    13ca:	48 8b 10             	mov    (%rax),%rdx
    13cd:	48 89 95 d8 fc ff ff 	mov    %rdx,-0x328(%rbp)
    13d4:	8b 40 08             	mov    0x8(%rax),%eax
    13d7:	89 85 e0 fc ff ff    	mov    %eax,-0x320(%rbp)
    13dd:	e9 b2 00 00 00       	jmpq   1494 <hanoi+0x30b>
    13e2:	48 83 85 b0 fc ff ff 	addq   $0xc,-0x350(%rbp)
    13e9:	0c 
    13ea:	48 8b 85 b8 fc ff ff 	mov    -0x348(%rbp),%rax
    13f1:	8b 40 04             	mov    0x4(%rax),%eax
    13f4:	8d 78 ff             	lea    -0x1(%rax),%edi
    13f7:	48 8b 85 b8 fc ff ff 	mov    -0x348(%rbp),%rax
    13fe:	0f b6 70 0a          	movzbl 0xa(%rax),%esi
    1402:	48 8b 85 b8 fc ff ff 	mov    -0x348(%rbp),%rax
    1409:	0f b6 48 09          	movzbl 0x9(%rax),%ecx
    140d:	48 8b 85 b8 fc ff ff 	mov    -0x348(%rbp),%rax
    1414:	0f b6 50 08          	movzbl 0x8(%rax),%edx
    1418:	48 8b 85 b0 fc ff ff 	mov    -0x350(%rbp),%rax
    141f:	c7 00 00 00 00 00    	movl   $0x0,(%rax)
    1425:	48 8b 85 b0 fc ff ff 	mov    -0x350(%rbp),%rax
    142c:	89 78 04             	mov    %edi,0x4(%rax)
    142f:	48 8b 85 b0 fc ff ff 	mov    -0x350(%rbp),%rax
    1436:	40 88 70 08          	mov    %sil,0x8(%rax)
    143a:	48 8b 85 b0 fc ff ff 	mov    -0x350(%rbp),%rax
    1441:	88 48 09             	mov    %cl,0x9(%rax)
    1444:	48 8b 85 b0 fc ff ff 	mov    -0x350(%rbp),%rax
    144b:	88 50 0a             	mov    %dl,0xa(%rax)
    144e:	48 8b 85 b0 fc ff ff 	mov    -0x350(%rbp),%rax
    1455:	48 8b 10             	mov    (%rax),%rdx
    1458:	48 89 95 e4 fc ff ff 	mov    %rdx,-0x31c(%rbp)
    145f:	8b 40 08             	mov    0x8(%rax),%eax
    1462:	89 85 ec fc ff ff    	mov    %eax,-0x314(%rbp)
    1468:	eb 2a                	jmp    1494 <hanoi+0x30b>
    146a:	48 83 ad b0 fc ff ff 	subq   $0xc,-0x350(%rbp)
    1471:	0c 
    1472:	eb 20                	jmp    1494 <hanoi+0x30b>
    1474:	48 8d 0d b5 0b 00 00 	lea    0xbb5(%rip),%rcx        # 2030 <__PRETTY_FUNCTION__.2358>
    147b:	ba 16 00 00 00       	mov    $0x16,%edx
    1480:	48 8d 35 87 0b 00 00 	lea    0xb87(%rip),%rsi        # 200e <_IO_stdin_used+0xe>
    1487:	48 8d 3d 8b 0b 00 00 	lea    0xb8b(%rip),%rdi        # 2019 <_IO_stdin_used+0x19>
    148e:	e8 fd fb ff ff       	callq  1090 <__assert_fail@plt>
    1493:	90                   	nop
    1494:	48 8b 85 b8 fc ff ff 	mov    -0x348(%rbp),%rax
    149b:	8b 00                	mov    (%rax),%eax
    149d:	8d 50 01             	lea    0x1(%rax),%edx
    14a0:	48 8b 85 b8 fc ff ff 	mov    -0x348(%rbp),%rax
    14a7:	89 10                	mov    %edx,(%rax)
    14a9:	48 8b 85 b0 fc ff ff 	mov    -0x350(%rbp),%rax
    14b0:	48 89 85 b8 fc ff ff 	mov    %rax,-0x348(%rbp)
    14b7:	48 8d 85 f0 fc ff ff 	lea    -0x310(%rbp),%rax
    14be:	48 39 85 b8 fc ff ff 	cmp    %rax,-0x348(%rbp)
    14c5:	0f 83 81 fd ff ff    	jae    124c <hanoi+0xc3>
    14cb:	90                   	nop
    14cc:	48 8b 45 f8          	mov    -0x8(%rbp),%rax
    14d0:	64 48 33 04 25 28 00 	xor    %fs:0x28,%rax
    14d7:	00 00 
    14d9:	74 05                	je     14e0 <hanoi+0x357>
    14db:	e8 90 fb ff ff       	callq  1070 <__stack_chk_fail@plt>
    14e0:	c9                   	leaveq 
    14e1:	c3                   	retq   

00000000000014e2 <main>:
    14e2:	f3 0f 1e fa          	endbr64 
    14e6:	55                   	push   %rbp
    14e7:	48 89 e5             	mov    %rsp,%rbp
    14ea:	b9 43 00 00 00       	mov    $0x43,%ecx
    14ef:	ba 42 00 00 00       	mov    $0x42,%edx
    14f4:	be 41 00 00 00       	mov    $0x41,%esi
    14f9:	bf 03 00 00 00       	mov    $0x3,%edi
    14fe:	e8 86 fc ff ff       	callq  1189 <hanoi>
    1503:	b8 00 00 00 00       	mov    $0x0,%eax
    1508:	5d                   	pop    %rbp
    1509:	c3                   	retq   
    150a:	66 0f 1f 44 00 00    	nopw   0x0(%rax,%rax,1)

0000000000001510 <__libc_csu_init>:
    1510:	f3 0f 1e fa          	endbr64 
    1514:	41 57                	push   %r15
    1516:	4c 8d 3d 8b 28 00 00 	lea    0x288b(%rip),%r15        # 3da8 <__frame_dummy_init_array_entry>
    151d:	41 56                	push   %r14
    151f:	49 89 d6             	mov    %rdx,%r14
    1522:	41 55                	push   %r13
    1524:	49 89 f5             	mov    %rsi,%r13
    1527:	41 54                	push   %r12
    1529:	41 89 fc             	mov    %edi,%r12d
    152c:	55                   	push   %rbp
    152d:	48 8d 2d 7c 28 00 00 	lea    0x287c(%rip),%rbp        # 3db0 <__do_global_dtors_aux_fini_array_entry>
    1534:	53                   	push   %rbx
    1535:	4c 29 fd             	sub    %r15,%rbp
    1538:	48 83 ec 08          	sub    $0x8,%rsp
    153c:	e8 bf fa ff ff       	callq  1000 <_init>
    1541:	48 c1 fd 03          	sar    $0x3,%rbp
    1545:	74 1f                	je     1566 <__libc_csu_init+0x56>
    1547:	31 db                	xor    %ebx,%ebx
    1549:	0f 1f 80 00 00 00 00 	nopl   0x0(%rax)
    1550:	4c 89 f2             	mov    %r14,%rdx
    1553:	4c 89 ee             	mov    %r13,%rsi
    1556:	44 89 e7             	mov    %r12d,%edi
    1559:	41 ff 14 df          	callq  *(%r15,%rbx,8)
    155d:	48 83 c3 01          	add    $0x1,%rbx
    1561:	48 39 dd             	cmp    %rbx,%rbp
    1564:	75 ea                	jne    1550 <__libc_csu_init+0x40>
    1566:	48 83 c4 08          	add    $0x8,%rsp
    156a:	5b                   	pop    %rbx
    156b:	5d                   	pop    %rbp
    156c:	41 5c                	pop    %r12
    156e:	41 5d                	pop    %r13
    1570:	41 5e                	pop    %r14
    1572:	41 5f                	pop    %r15
    1574:	c3                   	retq   
    1575:	66 66 2e 0f 1f 84 00 	data16 nopw %cs:0x0(%rax,%rax,1)
    157c:	00 00 00 00 

0000000000001580 <__libc_csu_fini>:
    1580:	f3 0f 1e fa          	endbr64 
    1584:	c3                   	retq   

Disassembly of section .fini:

0000000000001588 <_fini>:
    1588:	f3 0f 1e fa          	endbr64 
    158c:	48 83 ec 08          	sub    $0x8,%rsp
    1590:	48 83 c4 08          	add    $0x8,%rsp
    1594:	c3                   	retq   
_______________________________________________________________
_______________________________________________________________

x_print:     file format elf64-x86-64


Disassembly of section .init:

0000000000001000 <_init>:
    1000:	f3 0f 1e fa          	endbr64 
    1004:	48 83 ec 08          	sub    $0x8,%rsp
    1008:	48 8b 05 d9 3f 00 00 	mov    0x3fd9(%rip),%rax        # 4fe8 <__gmon_start__>
    100f:	48 85 c0             	test   %rax,%rax
    1012:	74 02                	je     1016 <_init+0x16>
    1014:	ff d0                	callq  *%rax
    1016:	48 83 c4 08          	add    $0x8,%rsp
    101a:	c3                   	retq   

Disassembly of section .plt:

0000000000001020 <.plt>:
    1020:	ff 35 8a 3f 00 00    	pushq  0x3f8a(%rip)        # 4fb0 <_GLOBAL_OFFSET_TABLE_+0x8>
    1026:	f2 ff 25 8b 3f 00 00 	bnd jmpq *0x3f8b(%rip)        # 4fb8 <_GLOBAL_OFFSET_TABLE_+0x10>
    102d:	0f 1f 00             	nopl   (%rax)
    1030:	f3 0f 1e fa          	endbr64 
    1034:	68 00 00 00 00       	pushq  $0x0
    1039:	f2 e9 e1 ff ff ff    	bnd jmpq 1020 <.plt>
    103f:	90                   	nop
    1040:	f3 0f 1e fa          	endbr64 
    1044:	68 01 00 00 00       	pushq  $0x1
    1049:	f2 e9 d1 ff ff ff    	bnd jmpq 1020 <.plt>
    104f:	90                   	nop
    1050:	f3 0f 1e fa          	endbr64 
    1054:	68 02 00 00 00       	pushq  $0x2
    1059:	f2 e9 c1 ff ff ff    	bnd jmpq 1020 <.plt>
    105f:	90                   	nop

Disassembly of section .plt.got:

0000000000001060 <__cxa_finalize@plt>:
    1060:	f3 0f 1e fa          	endbr64 
    1064:	f2 ff 25 8d 3f 00 00 	bnd jmpq *0x3f8d(%rip)        # 4ff8 <__cxa_finalize@GLIBC_2.2.5>
    106b:	0f 1f 44 00 00       	nopl   0x0(%rax,%rax,1)

Disassembly of section .plt.sec:

0000000000001070 <putchar@plt>:
    1070:	f3 0f 1e fa          	endbr64 
    1074:	f2 ff 25 45 3f 00 00 	bnd jmpq *0x3f45(%rip)        # 4fc0 <putchar@GLIBC_2.2.5>
    107b:	0f 1f 44 00 00       	nopl   0x0(%rax,%rax,1)

0000000000001080 <printf@plt>:
    1080:	f3 0f 1e fa          	endbr64 
    1084:	f2 ff 25 3d 3f 00 00 	bnd jmpq *0x3f3d(%rip)        # 4fc8 <printf@GLIBC_2.2.5>
    108b:	0f 1f 44 00 00       	nopl   0x0(%rax,%rax,1)

0000000000001090 <strtok@plt>:
    1090:	f3 0f 1e fa          	endbr64 
    1094:	f2 ff 25 35 3f 00 00 	bnd jmpq *0x3f35(%rip)        # 4fd0 <strtok@GLIBC_2.2.5>
    109b:	0f 1f 44 00 00       	nopl   0x0(%rax,%rax,1)

Disassembly of section .text:

00000000000010a0 <_start>:
    10a0:	f3 0f 1e fa          	endbr64 
    10a4:	31 ed                	xor    %ebp,%ebp
    10a6:	49 89 d1             	mov    %rdx,%r9
    10a9:	5e                   	pop    %rsi
    10aa:	48 89 e2             	mov    %rsp,%rdx
    10ad:	48 83 e4 f0          	and    $0xfffffffffffffff0,%rsp
    10b1:	50                   	push   %rax
    10b2:	54                   	push   %rsp
    10b3:	4c 8d 05 26 12 00 00 	lea    0x1226(%rip),%r8        # 22e0 <__libc_csu_fini>
    10ba:	48 8d 0d af 11 00 00 	lea    0x11af(%rip),%rcx        # 2270 <__libc_csu_init>
    10c1:	48 8d 3d 1d 01 00 00 	lea    0x11d(%rip),%rdi        # 11e5 <main>
    10c8:	ff 15 12 3f 00 00    	callq  *0x3f12(%rip)        # 4fe0 <__libc_start_main@GLIBC_2.2.5>
    10ce:	f4                   	hlt    
    10cf:	90                   	nop

00000000000010d0 <deregister_tm_clones>:
    10d0:	48 8d 3d 39 3f 00 00 	lea    0x3f39(%rip),%rdi        # 5010 <__TMC_END__>
    10d7:	48 8d 05 32 3f 00 00 	lea    0x3f32(%rip),%rax        # 5010 <__TMC_END__>
    10de:	48 39 f8             	cmp    %rdi,%rax
    10e1:	74 15                	je     10f8 <deregister_tm_clones+0x28>
    10e3:	48 8b 05 ee 3e 00 00 	mov    0x3eee(%rip),%rax        # 4fd8 <_ITM_deregisterTMCloneTable>
    10ea:	48 85 c0             	test   %rax,%rax
    10ed:	74 09                	je     10f8 <deregister_tm_clones+0x28>
    10ef:	ff e0                	jmpq   *%rax
    10f1:	0f 1f 80 00 00 00 00 	nopl   0x0(%rax)
    10f8:	c3                   	retq   
    10f9:	0f 1f 80 00 00 00 00 	nopl   0x0(%rax)

0000000000001100 <register_tm_clones>:
    1100:	48 8d 3d 09 3f 00 00 	lea    0x3f09(%rip),%rdi        # 5010 <__TMC_END__>
    1107:	48 8d 35 02 3f 00 00 	lea    0x3f02(%rip),%rsi        # 5010 <__TMC_END__>
    110e:	48 29 fe             	sub    %rdi,%rsi
    1111:	48 89 f0             	mov    %rsi,%rax
    1114:	48 c1 ee 3f          	shr    $0x3f,%rsi
    1118:	48 c1 f8 03          	sar    $0x3,%rax
    111c:	48 01 c6             	add    %rax,%rsi
    111f:	48 d1 fe             	sar    %rsi
    1122:	74 14                	je     1138 <register_tm_clones+0x38>
    1124:	48 8b 05 c5 3e 00 00 	mov    0x3ec5(%rip),%rax        # 4ff0 <_ITM_registerTMCloneTable>
    112b:	48 85 c0             	test   %rax,%rax
    112e:	74 08                	je     1138 <register_tm_clones+0x38>
    1130:	ff e0                	jmpq   *%rax
    1132:	66 0f 1f 44 00 00    	nopw   0x0(%rax,%rax,1)
    1138:	c3                   	retq   
    1139:	0f 1f 80 00 00 00 00 	nopl   0x0(%rax)

0000000000001140 <__do_global_dtors_aux>:
    1140:	f3 0f 1e fa          	endbr64 
    1144:	80 3d d5 3e 00 00 00 	cmpb   $0x0,0x3ed5(%rip)        # 5020 <completed.8061>
    114b:	75 2b                	jne    1178 <__do_global_dtors_aux+0x38>
    114d:	55                   	push   %rbp
    114e:	48 83 3d a2 3e 00 00 	cmpq   $0x0,0x3ea2(%rip)        # 4ff8 <__cxa_finalize@GLIBC_2.2.5>
    1155:	00 
    1156:	48 89 e5             	mov    %rsp,%rbp
    1159:	74 0c                	je     1167 <__do_global_dtors_aux+0x27>
    115b:	48 8b 3d a6 3e 00 00 	mov    0x3ea6(%rip),%rdi        # 5008 <__dso_handle>
    1162:	e8 f9 fe ff ff       	callq  1060 <__cxa_finalize@plt>
    1167:	e8 64 ff ff ff       	callq  10d0 <deregister_tm_clones>
    116c:	c6 05 ad 3e 00 00 01 	movb   $0x1,0x3ead(%rip)        # 5020 <completed.8061>
    1173:	5d                   	pop    %rbp
    1174:	c3                   	retq   
    1175:	0f 1f 00             	nopl   (%rax)
    1178:	c3                   	retq   
    1179:	0f 1f 80 00 00 00 00 	nopl   0x0(%rax)

0000000000001180 <frame_dummy>:
    1180:	f3 0f 1e fa          	endbr64 
    1184:	e9 77 ff ff ff       	jmpq   1100 <register_tm_clones>

0000000000001189 <parse>:


int parse(char *args){
    1189:	f3 0f 1e fa          	endbr64 
    118d:	55                   	push   %rbp
    118e:	48 89 e5             	mov    %rsp,%rbp
    1191:	48 83 ec 20          	sub    $0x20,%rsp
    1195:	48 89 7d e8          	mov    %rdi,-0x18(%rbp)
    int ret = 0 ;
    1199:	c7 45 f4 00 00 00 00 	movl   $0x0,-0xc(%rbp)
    if(args){
    11a0:	48 83 7d e8 00       	cmpq   $0x0,-0x18(%rbp)
    11a5:	74 39                	je     11e0 <parse+0x57>
        char *token=strtok(args," ");
    11a7:	48 8b 45 e8          	mov    -0x18(%rbp),%rax
    11ab:	48 8d 35 6e 1e 00 00 	lea    0x1e6e(%rip),%rsi        # 3020 <_IO_stdin_used+0x20>
    11b2:	48 89 c7             	mov    %rax,%rdi
    11b5:	e8 d6 fe ff ff       	callq  1090 <strtok@plt>
    11ba:	48 89 45 f8          	mov    %rax,-0x8(%rbp)
        for(;token;ret++){
    11be:	eb 19                	jmp    11d9 <parse+0x50>
            token = strtok(NULL," "); 
    11c0:	48 8d 35 59 1e 00 00 	lea    0x1e59(%rip),%rsi        # 3020 <_IO_stdin_used+0x20>
    11c7:	bf 00 00 00 00       	mov    $0x0,%edi
    11cc:	e8 bf fe ff ff       	callq  1090 <strtok@plt>
    11d1:	48 89 45 f8          	mov    %rax,-0x8(%rbp)
        for(;token;ret++){
    11d5:	83 45 f4 01          	addl   $0x1,-0xc(%rbp)
    11d9:	48 83 7d f8 00       	cmpq   $0x0,-0x8(%rbp)
    11de:	75 e0                	jne    11c0 <parse+0x37>
        }
    }
    return ret;
    11e0:	8b 45 f4             	mov    -0xc(%rbp),%eax
}
    11e3:	c9                   	leaveq 
    11e4:	c3                   	retq   

00000000000011e5 <main>:
    11e5:	f3 0f 1e fa          	endbr64 
    11e9:	55                   	push   %rbp
    11ea:	48 89 e5             	mov    %rsp,%rbp
    11ed:	48 83 ec 10          	sub    $0x10,%rsp
    11f1:	48 8b 05 48 1e 00 00 	mov    0x1e48(%rip),%rax        # 3040 <img>
    11f8:	48 8b 15 49 1e 00 00 	mov    0x1e49(%rip),%rdx        # 3048 <img+0x8>
    11ff:	48 89 05 3a 3e 00 00 	mov    %rax,0x3e3a(%rip)        # 5040 <pmem>
    1206:	48 89 15 3b 3e 00 00 	mov    %rdx,0x3e3b(%rip)        # 5048 <pmem+0x8>
    120d:	48 8b 05 3c 1e 00 00 	mov    0x1e3c(%rip),%rax        # 3050 <img+0x10>
    1214:	48 8b 15 3d 1e 00 00 	mov    0x1e3d(%rip),%rdx        # 3058 <img+0x18>
    121b:	48 89 05 2e 3e 00 00 	mov    %rax,0x3e2e(%rip)        # 5050 <pmem+0x10>
    1222:	48 89 15 2f 3e 00 00 	mov    %rdx,0x3e2f(%rip)        # 5058 <pmem+0x18>
    1229:	48 8d 05 10 3e 00 00 	lea    0x3e10(%rip),%rax        # 5040 <pmem>
    1230:	48 89 45 f8          	mov    %rax,-0x8(%rbp)
    1234:	48 8d 0d 05 3e 00 00 	lea    0x3e05(%rip),%rcx        # 5040 <pmem>
    123b:	ba 62 00 00 00       	mov    $0x62,%edx
    1240:	be 78 00 00 00       	mov    $0x78,%esi
    1245:	bf 0a 00 00 00       	mov    $0xa,%edi
    124a:	e8 f9 01 00 00       	callq  1448 <x_print>
    124f:	48 8d 0d ea 3d 00 00 	lea    0x3dea(%rip),%rcx        # 5040 <pmem>
    1256:	ba 62 00 00 00       	mov    $0x62,%edx
    125b:	be 6f 00 00 00       	mov    $0x6f,%esi
    1260:	bf 0a 00 00 00       	mov    $0xa,%edi
    1265:	e8 de 01 00 00       	callq  1448 <x_print>
    126a:	48 8d 0d cf 3d 00 00 	lea    0x3dcf(%rip),%rcx        # 5040 <pmem>
    1271:	ba 62 00 00 00       	mov    $0x62,%edx
    1276:	be 64 00 00 00       	mov    $0x64,%esi
    127b:	bf 0a 00 00 00       	mov    $0xa,%edi
    1280:	e8 c3 01 00 00       	callq  1448 <x_print>
    1285:	48 8d 0d b4 3d 00 00 	lea    0x3db4(%rip),%rcx        # 5040 <pmem>
    128c:	ba 62 00 00 00       	mov    $0x62,%edx
    1291:	be 75 00 00 00       	mov    $0x75,%esi
    1296:	bf 0a 00 00 00       	mov    $0xa,%edi
    129b:	e8 a8 01 00 00       	callq  1448 <x_print>
    12a0:	48 8d 0d 99 3d 00 00 	lea    0x3d99(%rip),%rcx        # 5040 <pmem>
    12a7:	ba 68 00 00 00       	mov    $0x68,%edx
    12ac:	be 78 00 00 00       	mov    $0x78,%esi
    12b1:	bf 0a 00 00 00       	mov    $0xa,%edi
    12b6:	e8 8d 01 00 00       	callq  1448 <x_print>
    12bb:	48 8d 0d 7e 3d 00 00 	lea    0x3d7e(%rip),%rcx        # 5040 <pmem>
    12c2:	ba 68 00 00 00       	mov    $0x68,%edx
    12c7:	be 6f 00 00 00       	mov    $0x6f,%esi
    12cc:	bf 0a 00 00 00       	mov    $0xa,%edi
    12d1:	e8 72 01 00 00       	callq  1448 <x_print>
    12d6:	48 8d 0d 63 3d 00 00 	lea    0x3d63(%rip),%rcx        # 5040 <pmem>
    12dd:	ba 68 00 00 00       	mov    $0x68,%edx
    12e2:	be 64 00 00 00       	mov    $0x64,%esi
    12e7:	bf 0a 00 00 00       	mov    $0xa,%edi
    12ec:	e8 57 01 00 00       	callq  1448 <x_print>
    12f1:	48 8d 0d 48 3d 00 00 	lea    0x3d48(%rip),%rcx        # 5040 <pmem>
    12f8:	ba 68 00 00 00       	mov    $0x68,%edx
    12fd:	be 75 00 00 00       	mov    $0x75,%esi
    1302:	bf 0a 00 00 00       	mov    $0xa,%edi
    1307:	e8 3c 01 00 00       	callq  1448 <x_print>
    130c:	48 8d 0d 2d 3d 00 00 	lea    0x3d2d(%rip),%rcx        # 5040 <pmem>
    1313:	ba 77 00 00 00       	mov    $0x77,%edx
    1318:	be 78 00 00 00       	mov    $0x78,%esi
    131d:	bf 0a 00 00 00       	mov    $0xa,%edi
    1322:	e8 21 01 00 00       	callq  1448 <x_print>
    1327:	48 8d 0d 12 3d 00 00 	lea    0x3d12(%rip),%rcx        # 5040 <pmem>
    132e:	ba 77 00 00 00       	mov    $0x77,%edx
    1333:	be 6f 00 00 00       	mov    $0x6f,%esi
    1338:	bf 0a 00 00 00       	mov    $0xa,%edi
    133d:	e8 06 01 00 00       	callq  1448 <x_print>
    1342:	48 8d 0d f7 3c 00 00 	lea    0x3cf7(%rip),%rcx        # 5040 <pmem>
    1349:	ba 77 00 00 00       	mov    $0x77,%edx
    134e:	be 64 00 00 00       	mov    $0x64,%esi
    1353:	bf 0a 00 00 00       	mov    $0xa,%edi
    1358:	e8 eb 00 00 00       	callq  1448 <x_print>
    135d:	48 8d 0d dc 3c 00 00 	lea    0x3cdc(%rip),%rcx        # 5040 <pmem>
    1364:	ba 77 00 00 00       	mov    $0x77,%edx
    1369:	be 75 00 00 00       	mov    $0x75,%esi
    136e:	bf 0a 00 00 00       	mov    $0xa,%edi
    1373:	e8 d0 00 00 00       	callq  1448 <x_print>
    1378:	48 8d 0d c1 3c 00 00 	lea    0x3cc1(%rip),%rcx        # 5040 <pmem>
    137f:	ba 67 00 00 00       	mov    $0x67,%edx
    1384:	be 78 00 00 00       	mov    $0x78,%esi
    1389:	bf 05 00 00 00       	mov    $0x5,%edi
    138e:	e8 b5 00 00 00       	callq  1448 <x_print>
    1393:	48 8d 0d a6 3c 00 00 	lea    0x3ca6(%rip),%rcx        # 5040 <pmem>
    139a:	ba 67 00 00 00       	mov    $0x67,%edx
    139f:	be 6f 00 00 00       	mov    $0x6f,%esi
    13a4:	bf 05 00 00 00       	mov    $0x5,%edi
    13a9:	e8 9a 00 00 00       	callq  1448 <x_print>
    13ae:	48 8d 0d 8b 3c 00 00 	lea    0x3c8b(%rip),%rcx        # 5040 <pmem>
    13b5:	ba 67 00 00 00       	mov    $0x67,%edx
    13ba:	be 64 00 00 00       	mov    $0x64,%esi
    13bf:	bf 05 00 00 00       	mov    $0x5,%edi
    13c4:	e8 7f 00 00 00       	callq  1448 <x_print>
    13c9:	48 8d 0d 70 3c 00 00 	lea    0x3c70(%rip),%rcx        # 5040 <pmem>
    13d0:	ba 67 00 00 00       	mov    $0x67,%edx
    13d5:	be 75 00 00 00       	mov    $0x75,%esi
    13da:	bf 05 00 00 00       	mov    $0x5,%edi
    13df:	e8 64 00 00 00       	callq  1448 <x_print>
    13e4:	c7 45 f4 00 00 00 00 	movl   $0x0,-0xc(%rbp)
    13eb:	eb 4c                	jmp    1439 <main+0x254>
    13ed:	48 8b 45 f8          	mov    -0x8(%rbp),%rax
    13f1:	0f b6 00             	movzbl (%rax),%eax
    13f4:	0f b6 d0             	movzbl %al,%edx
    13f7:	8b 45 f4             	mov    -0xc(%rbp),%eax
    13fa:	89 c6                	mov    %eax,%esi
    13fc:	48 8d 3d 5d 1c 00 00 	lea    0x1c5d(%rip),%rdi        # 3060 <img+0x20>
    1403:	b8 00 00 00 00       	mov    $0x0,%eax
    1408:	e8 73 fc ff ff       	callq  1080 <printf@plt>
    140d:	8b 45 f4             	mov    -0xc(%rbp),%eax
    1410:	83 c0 01             	add    $0x1,%eax
    1413:	83 e0 03             	and    $0x3,%eax
    1416:	85 c0                	test   %eax,%eax
    1418:	74 0c                	je     1426 <main+0x241>
    141a:	bf 09 00 00 00       	mov    $0x9,%edi
    141f:	e8 4c fc ff ff       	callq  1070 <putchar@plt>
    1424:	eb 0a                	jmp    1430 <main+0x24b>
    1426:	bf 0a 00 00 00       	mov    $0xa,%edi
    142b:	e8 40 fc ff ff       	callq  1070 <putchar@plt>
    1430:	48 83 45 f8 01       	addq   $0x1,-0x8(%rbp)
    1435:	83 45 f4 01          	addl   $0x1,-0xc(%rbp)
    1439:	8b 45 f4             	mov    -0xc(%rbp),%eax
    143c:	83 f8 1f             	cmp    $0x1f,%eax
    143f:	76 ac                	jbe    13ed <main+0x208>
    1441:	b8 00 00 00 00       	mov    $0x0,%eax
    1446:	c9                   	leaveq 
    1447:	c3                   	retq   

0000000000001448 <x_print>:
    1448:	f3 0f 1e fa          	endbr64 
    144c:	55                   	push   %rbp
    144d:	48 89 e5             	mov    %rsp,%rbp
    1450:	48 81 ec b0 00 00 00 	sub    $0xb0,%rsp
    1457:	89 bd 6c ff ff ff    	mov    %edi,-0x94(%rbp)
    145d:	89 d0                	mov    %edx,%eax
    145f:	48 89 8d 58 ff ff ff 	mov    %rcx,-0xa8(%rbp)
    1466:	89 f2                	mov    %esi,%edx
    1468:	88 95 68 ff ff ff    	mov    %dl,-0x98(%rbp)
    146e:	88 85 64 ff ff ff    	mov    %al,-0x9c(%rbp)
    1474:	80 bd 68 ff ff ff 78 	cmpb   $0x78,-0x98(%rbp)
    147b:	0f 85 d3 00 00 00    	jne    1554 <x_print+0x10c>
    1481:	80 bd 64 ff ff ff 62 	cmpb   $0x62,-0x9c(%rbp)
    1488:	0f 85 c6 00 00 00    	jne    1554 <x_print+0x10c>
    148e:	48 8b 85 58 ff ff ff 	mov    -0xa8(%rbp),%rax
    1495:	48 89 45 80          	mov    %rax,-0x80(%rbp)
    1499:	c7 85 7c ff ff ff 00 	movl   $0x0,-0x84(%rbp)
    14a0:	00 00 00 
    14a3:	eb 7d                	jmp    1522 <x_print+0xda>
    14a5:	8b 85 7c ff ff ff    	mov    -0x84(%rbp),%eax
    14ab:	83 e0 07             	and    $0x7,%eax
    14ae:	85 c0                	test   %eax,%eax
    14b0:	75 18                	jne    14ca <x_print+0x82>
    14b2:	48 8b 45 80          	mov    -0x80(%rbp),%rax
    14b6:	48 89 c6             	mov    %rax,%rsi
    14b9:	48 8d 3d b2 1b 00 00 	lea    0x1bb2(%rip),%rdi        # 3072 <img+0x32>
    14c0:	b8 00 00 00 00       	mov    $0x0,%eax
    14c5:	e8 b6 fb ff ff       	callq  1080 <printf@plt>
    14ca:	8b 85 7c ff ff ff    	mov    -0x84(%rbp),%eax
    14d0:	83 c0 01             	add    $0x1,%eax
    14d3:	83 e0 07             	and    $0x7,%eax
    14d6:	85 c0                	test   %eax,%eax
    14d8:	74 1f                	je     14f9 <x_print+0xb1>
    14da:	48 8b 45 80          	mov    -0x80(%rbp),%rax
    14de:	0f b6 00             	movzbl (%rax),%eax
    14e1:	0f b6 c0             	movzbl %al,%eax
    14e4:	89 c6                	mov    %eax,%esi
    14e6:	48 8d 3d 8a 1b 00 00 	lea    0x1b8a(%rip),%rdi        # 3077 <img+0x37>
    14ed:	b8 00 00 00 00       	mov    $0x0,%eax
    14f2:	e8 89 fb ff ff       	callq  1080 <printf@plt>
    14f7:	eb 1d                	jmp    1516 <x_print+0xce>
    14f9:	48 8b 45 80          	mov    -0x80(%rbp),%rax
    14fd:	0f b6 00             	movzbl (%rax),%eax
    1500:	0f b6 c0             	movzbl %al,%eax
    1503:	89 c6                	mov    %eax,%esi
    1505:	48 8d 3d 73 1b 00 00 	lea    0x1b73(%rip),%rdi        # 307f <img+0x3f>
    150c:	b8 00 00 00 00       	mov    $0x0,%eax
    1511:	e8 6a fb ff ff       	callq  1080 <printf@plt>
    1516:	48 83 45 80 01       	addq   $0x1,-0x80(%rbp)
    151b:	83 85 7c ff ff ff 01 	addl   $0x1,-0x84(%rbp)
    1522:	8b 85 7c ff ff ff    	mov    -0x84(%rbp),%eax
    1528:	3b 85 6c ff ff ff    	cmp    -0x94(%rbp),%eax
    152e:	0f 8c 71 ff ff ff    	jl     14a5 <x_print+0x5d>
    1534:	8b 85 7c ff ff ff    	mov    -0x84(%rbp),%eax
    153a:	83 e0 07             	and    $0x7,%eax
    153d:	85 c0                	test   %eax,%eax
    153f:	0f 84 f4 0c 00 00    	je     2239 <x_print+0xdf1>
    1545:	bf 0a 00 00 00       	mov    $0xa,%edi
    154a:	e8 21 fb ff ff       	callq  1070 <putchar@plt>
    154f:	e9 e5 0c 00 00       	jmpq   2239 <x_print+0xdf1>
    1554:	80 bd 68 ff ff ff 6f 	cmpb   $0x6f,-0x98(%rbp)
    155b:	0f 85 d3 00 00 00    	jne    1634 <x_print+0x1ec>
    1561:	80 bd 64 ff ff ff 62 	cmpb   $0x62,-0x9c(%rbp)
    1568:	0f 85 c6 00 00 00    	jne    1634 <x_print+0x1ec>
    156e:	48 8b 85 58 ff ff ff 	mov    -0xa8(%rbp),%rax
    1575:	48 89 45 88          	mov    %rax,-0x78(%rbp)
    1579:	c7 85 7c ff ff ff 00 	movl   $0x0,-0x84(%rbp)
    1580:	00 00 00 
    1583:	eb 7d                	jmp    1602 <x_print+0x1ba>
    1585:	8b 85 7c ff ff ff    	mov    -0x84(%rbp),%eax
    158b:	83 e0 07             	and    $0x7,%eax
    158e:	85 c0                	test   %eax,%eax
    1590:	75 18                	jne    15aa <x_print+0x162>
    1592:	48 8b 45 88          	mov    -0x78(%rbp),%rax
    1596:	48 89 c6             	mov    %rax,%rsi
    1599:	48 8d 3d d2 1a 00 00 	lea    0x1ad2(%rip),%rdi        # 3072 <img+0x32>
    15a0:	b8 00 00 00 00       	mov    $0x0,%eax
    15a5:	e8 d6 fa ff ff       	callq  1080 <printf@plt>
    15aa:	8b 85 7c ff ff ff    	mov    -0x84(%rbp),%eax
    15b0:	83 c0 01             	add    $0x1,%eax
    15b3:	83 e0 07             	and    $0x7,%eax
    15b6:	85 c0                	test   %eax,%eax
    15b8:	74 1f                	je     15d9 <x_print+0x191>
    15ba:	48 8b 45 88          	mov    -0x78(%rbp),%rax
    15be:	0f b6 00             	movzbl (%rax),%eax
    15c1:	0f b6 c0             	movzbl %al,%eax
    15c4:	89 c6                	mov    %eax,%esi
    15c6:	48 8d 3d ba 1a 00 00 	lea    0x1aba(%rip),%rdi        # 3087 <img+0x47>
    15cd:	b8 00 00 00 00       	mov    $0x0,%eax
    15d2:	e8 a9 fa ff ff       	callq  1080 <printf@plt>
    15d7:	eb 1d                	jmp    15f6 <x_print+0x1ae>
    15d9:	48 8b 45 88          	mov    -0x78(%rbp),%rax
    15dd:	0f b6 00             	movzbl (%rax),%eax
    15e0:	0f b6 c0             	movzbl %al,%eax
    15e3:	89 c6                	mov    %eax,%esi
    15e5:	48 8d 3d a1 1a 00 00 	lea    0x1aa1(%rip),%rdi        # 308d <img+0x4d>
    15ec:	b8 00 00 00 00       	mov    $0x0,%eax
    15f1:	e8 8a fa ff ff       	callq  1080 <printf@plt>
    15f6:	48 83 45 88 01       	addq   $0x1,-0x78(%rbp)
    15fb:	83 85 7c ff ff ff 01 	addl   $0x1,-0x84(%rbp)
    1602:	8b 85 7c ff ff ff    	mov    -0x84(%rbp),%eax
    1608:	3b 85 6c ff ff ff    	cmp    -0x94(%rbp),%eax
    160e:	0f 8c 71 ff ff ff    	jl     1585 <x_print+0x13d>
    1614:	8b 85 7c ff ff ff    	mov    -0x84(%rbp),%eax
    161a:	83 e0 07             	and    $0x7,%eax
    161d:	85 c0                	test   %eax,%eax
    161f:	0f 84 17 0c 00 00    	je     223c <x_print+0xdf4>
    1625:	bf 0a 00 00 00       	mov    $0xa,%edi
    162a:	e8 41 fa ff ff       	callq  1070 <putchar@plt>
    162f:	e9 08 0c 00 00       	jmpq   223c <x_print+0xdf4>
    1634:	80 bd 68 ff ff ff 64 	cmpb   $0x64,-0x98(%rbp)
    163b:	0f 85 d3 00 00 00    	jne    1714 <x_print+0x2cc>
    1641:	80 bd 64 ff ff ff 62 	cmpb   $0x62,-0x9c(%rbp)
    1648:	0f 85 c6 00 00 00    	jne    1714 <x_print+0x2cc>
    164e:	48 8b 85 58 ff ff ff 	mov    -0xa8(%rbp),%rax
    1655:	48 89 45 90          	mov    %rax,-0x70(%rbp)
    1659:	c7 85 7c ff ff ff 00 	movl   $0x0,-0x84(%rbp)
    1660:	00 00 00 
    1663:	eb 7d                	jmp    16e2 <x_print+0x29a>
    1665:	8b 85 7c ff ff ff    	mov    -0x84(%rbp),%eax
    166b:	83 e0 07             	and    $0x7,%eax
    166e:	85 c0                	test   %eax,%eax
    1670:	75 18                	jne    168a <x_print+0x242>
    1672:	48 8b 45 90          	mov    -0x70(%rbp),%rax
    1676:	48 89 c6             	mov    %rax,%rsi
    1679:	48 8d 3d f2 19 00 00 	lea    0x19f2(%rip),%rdi        # 3072 <img+0x32>
    1680:	b8 00 00 00 00       	mov    $0x0,%eax
    1685:	e8 f6 f9 ff ff       	callq  1080 <printf@plt>
    168a:	8b 85 7c ff ff ff    	mov    -0x84(%rbp),%eax
    1690:	83 c0 01             	add    $0x1,%eax
    1693:	83 e0 07             	and    $0x7,%eax
    1696:	85 c0                	test   %eax,%eax
    1698:	74 1f                	je     16b9 <x_print+0x271>
    169a:	48 8b 45 90          	mov    -0x70(%rbp),%rax
    169e:	0f b6 00             	movzbl (%rax),%eax
    16a1:	0f be c0             	movsbl %al,%eax
    16a4:	89 c6                	mov    %eax,%esi
    16a6:	48 8d 3d e6 19 00 00 	lea    0x19e6(%rip),%rdi        # 3093 <img+0x53>
    16ad:	b8 00 00 00 00       	mov    $0x0,%eax
    16b2:	e8 c9 f9 ff ff       	callq  1080 <printf@plt>
    16b7:	eb 1d                	jmp    16d6 <x_print+0x28e>
    16b9:	48 8b 45 90          	mov    -0x70(%rbp),%rax
    16bd:	0f b6 00             	movzbl (%rax),%eax
    16c0:	0f be c0             	movsbl %al,%eax
    16c3:	89 c6                	mov    %eax,%esi
    16c5:	48 8d 3d cb 19 00 00 	lea    0x19cb(%rip),%rdi        # 3097 <img+0x57>
    16cc:	b8 00 00 00 00       	mov    $0x0,%eax
    16d1:	e8 aa f9 ff ff       	callq  1080 <printf@plt>
    16d6:	48 83 45 90 01       	addq   $0x1,-0x70(%rbp)
    16db:	83 85 7c ff ff ff 01 	addl   $0x1,-0x84(%rbp)
    16e2:	8b 85 7c ff ff ff    	mov    -0x84(%rbp),%eax
    16e8:	3b 85 6c ff ff ff    	cmp    -0x94(%rbp),%eax
    16ee:	0f 8c 71 ff ff ff    	jl     1665 <x_print+0x21d>
    16f4:	8b 85 7c ff ff ff    	mov    -0x84(%rbp),%eax
    16fa:	83 e0 07             	and    $0x7,%eax
    16fd:	85 c0                	test   %eax,%eax
    16ff:	0f 84 3a 0b 00 00    	je     223f <x_print+0xdf7>
    1705:	bf 0a 00 00 00       	mov    $0xa,%edi
    170a:	e8 61 f9 ff ff       	callq  1070 <putchar@plt>
    170f:	e9 2b 0b 00 00       	jmpq   223f <x_print+0xdf7>
    1714:	80 bd 68 ff ff ff 75 	cmpb   $0x75,-0x98(%rbp)
    171b:	0f 85 d3 00 00 00    	jne    17f4 <x_print+0x3ac>
    1721:	80 bd 64 ff ff ff 62 	cmpb   $0x62,-0x9c(%rbp)
    1728:	0f 85 c6 00 00 00    	jne    17f4 <x_print+0x3ac>
    172e:	48 8b 85 58 ff ff ff 	mov    -0xa8(%rbp),%rax
    1735:	48 89 45 98          	mov    %rax,-0x68(%rbp)
    1739:	c7 85 7c ff ff ff 00 	movl   $0x0,-0x84(%rbp)
    1740:	00 00 00 
    1743:	eb 7d                	jmp    17c2 <x_print+0x37a>
    1745:	8b 85 7c ff ff ff    	mov    -0x84(%rbp),%eax
    174b:	83 e0 07             	and    $0x7,%eax
    174e:	85 c0                	test   %eax,%eax
    1750:	75 18                	jne    176a <x_print+0x322>
    1752:	48 8b 45 98          	mov    -0x68(%rbp),%rax
    1756:	48 89 c6             	mov    %rax,%rsi
    1759:	48 8d 3d 12 19 00 00 	lea    0x1912(%rip),%rdi        # 3072 <img+0x32>
    1760:	b8 00 00 00 00       	mov    $0x0,%eax
    1765:	e8 16 f9 ff ff       	callq  1080 <printf@plt>
    176a:	8b 85 7c ff ff ff    	mov    -0x84(%rbp),%eax
    1770:	83 c0 01             	add    $0x1,%eax
    1773:	83 e0 07             	and    $0x7,%eax
    1776:	85 c0                	test   %eax,%eax
    1778:	74 1f                	je     1799 <x_print+0x351>
    177a:	48 8b 45 98          	mov    -0x68(%rbp),%rax
    177e:	0f b6 00             	movzbl (%rax),%eax
    1781:	0f b6 c0             	movzbl %al,%eax
    1784:	89 c6                	mov    %eax,%esi
    1786:	48 8d 3d 0e 19 00 00 	lea    0x190e(%rip),%rdi        # 309b <img+0x5b>
    178d:	b8 00 00 00 00       	mov    $0x0,%eax
    1792:	e8 e9 f8 ff ff       	callq  1080 <printf@plt>
    1797:	eb 1d                	jmp    17b6 <x_print+0x36e>
    1799:	48 8b 45 98          	mov    -0x68(%rbp),%rax
    179d:	0f b6 00             	movzbl (%rax),%eax
    17a0:	0f b6 c0             	movzbl %al,%eax
    17a3:	89 c6                	mov    %eax,%esi
    17a5:	48 8d 3d f3 18 00 00 	lea    0x18f3(%rip),%rdi        # 309f <img+0x5f>
    17ac:	b8 00 00 00 00       	mov    $0x0,%eax
    17b1:	e8 ca f8 ff ff       	callq  1080 <printf@plt>
    17b6:	48 83 45 98 01       	addq   $0x1,-0x68(%rbp)
    17bb:	83 85 7c ff ff ff 01 	addl   $0x1,-0x84(%rbp)
    17c2:	8b 85 7c ff ff ff    	mov    -0x84(%rbp),%eax
    17c8:	3b 85 6c ff ff ff    	cmp    -0x94(%rbp),%eax
    17ce:	0f 8c 71 ff ff ff    	jl     1745 <x_print+0x2fd>
    17d4:	8b 85 7c ff ff ff    	mov    -0x84(%rbp),%eax
    17da:	83 e0 07             	and    $0x7,%eax
    17dd:	85 c0                	test   %eax,%eax
    17df:	0f 84 5d 0a 00 00    	je     2242 <x_print+0xdfa>
    17e5:	bf 0a 00 00 00       	mov    $0xa,%edi
    17ea:	e8 81 f8 ff ff       	callq  1070 <putchar@plt>
    17ef:	e9 4e 0a 00 00       	jmpq   2242 <x_print+0xdfa>
    17f4:	80 bd 68 ff ff ff 78 	cmpb   $0x78,-0x98(%rbp)
    17fb:	0f 85 d3 00 00 00    	jne    18d4 <x_print+0x48c>
    1801:	80 bd 64 ff ff ff 68 	cmpb   $0x68,-0x9c(%rbp)
    1808:	0f 85 c6 00 00 00    	jne    18d4 <x_print+0x48c>
    180e:	48 8b 85 58 ff ff ff 	mov    -0xa8(%rbp),%rax
    1815:	48 89 45 a0          	mov    %rax,-0x60(%rbp)
    1819:	c7 85 7c ff ff ff 00 	movl   $0x0,-0x84(%rbp)
    1820:	00 00 00 
    1823:	eb 7d                	jmp    18a2 <x_print+0x45a>
    1825:	8b 85 7c ff ff ff    	mov    -0x84(%rbp),%eax
    182b:	83 e0 07             	and    $0x7,%eax
    182e:	85 c0                	test   %eax,%eax
    1830:	75 18                	jne    184a <x_print+0x402>
    1832:	48 8b 45 a0          	mov    -0x60(%rbp),%rax
    1836:	48 89 c6             	mov    %rax,%rsi
    1839:	48 8d 3d 32 18 00 00 	lea    0x1832(%rip),%rdi        # 3072 <img+0x32>
    1840:	b8 00 00 00 00       	mov    $0x0,%eax
    1845:	e8 36 f8 ff ff       	callq  1080 <printf@plt>
    184a:	8b 85 7c ff ff ff    	mov    -0x84(%rbp),%eax
    1850:	83 c0 01             	add    $0x1,%eax
    1853:	83 e0 07             	and    $0x7,%eax
    1856:	85 c0                	test   %eax,%eax
    1858:	74 1f                	je     1879 <x_print+0x431>
    185a:	48 8b 45 a0          	mov    -0x60(%rbp),%rax
    185e:	0f b7 00             	movzwl (%rax),%eax
    1861:	0f b7 c0             	movzwl %ax,%eax
    1864:	89 c6                	mov    %eax,%esi
    1866:	48 8d 3d 36 18 00 00 	lea    0x1836(%rip),%rdi        # 30a3 <img+0x63>
    186d:	b8 00 00 00 00       	mov    $0x0,%eax
    1872:	e8 09 f8 ff ff       	callq  1080 <printf@plt>
    1877:	eb 1d                	jmp    1896 <x_print+0x44e>
    1879:	48 8b 45 a0          	mov    -0x60(%rbp),%rax
    187d:	0f b7 00             	movzwl (%rax),%eax
    1880:	0f b7 c0             	movzwl %ax,%eax
    1883:	89 c6                	mov    %eax,%esi
    1885:	48 8d 3d 1f 18 00 00 	lea    0x181f(%rip),%rdi        # 30ab <img+0x6b>
    188c:	b8 00 00 00 00       	mov    $0x0,%eax
    1891:	e8 ea f7 ff ff       	callq  1080 <printf@plt>
    1896:	48 83 45 a0 02       	addq   $0x2,-0x60(%rbp)
    189b:	83 85 7c ff ff ff 01 	addl   $0x1,-0x84(%rbp)
    18a2:	8b 85 7c ff ff ff    	mov    -0x84(%rbp),%eax
    18a8:	3b 85 6c ff ff ff    	cmp    -0x94(%rbp),%eax
    18ae:	0f 8c 71 ff ff ff    	jl     1825 <x_print+0x3dd>
    18b4:	8b 85 7c ff ff ff    	mov    -0x84(%rbp),%eax
    18ba:	83 e0 07             	and    $0x7,%eax
    18bd:	85 c0                	test   %eax,%eax
    18bf:	0f 84 80 09 00 00    	je     2245 <x_print+0xdfd>
    18c5:	bf 0a 00 00 00       	mov    $0xa,%edi
    18ca:	e8 a1 f7 ff ff       	callq  1070 <putchar@plt>
    18cf:	e9 71 09 00 00       	jmpq   2245 <x_print+0xdfd>
    18d4:	80 bd 68 ff ff ff 6f 	cmpb   $0x6f,-0x98(%rbp)
    18db:	0f 85 d3 00 00 00    	jne    19b4 <x_print+0x56c>
    18e1:	80 bd 64 ff ff ff 68 	cmpb   $0x68,-0x9c(%rbp)
    18e8:	0f 85 c6 00 00 00    	jne    19b4 <x_print+0x56c>
    18ee:	48 8b 85 58 ff ff ff 	mov    -0xa8(%rbp),%rax
    18f5:	48 89 45 a8          	mov    %rax,-0x58(%rbp)
    18f9:	c7 85 7c ff ff ff 00 	movl   $0x0,-0x84(%rbp)
    1900:	00 00 00 
    1903:	eb 7d                	jmp    1982 <x_print+0x53a>
    1905:	8b 85 7c ff ff ff    	mov    -0x84(%rbp),%eax
    190b:	83 e0 07             	and    $0x7,%eax
    190e:	85 c0                	test   %eax,%eax
    1910:	75 18                	jne    192a <x_print+0x4e2>
    1912:	48 8b 45 a8          	mov    -0x58(%rbp),%rax
    1916:	48 89 c6             	mov    %rax,%rsi
    1919:	48 8d 3d 52 17 00 00 	lea    0x1752(%rip),%rdi        # 3072 <img+0x32>
    1920:	b8 00 00 00 00       	mov    $0x0,%eax
    1925:	e8 56 f7 ff ff       	callq  1080 <printf@plt>
    192a:	8b 85 7c ff ff ff    	mov    -0x84(%rbp),%eax
    1930:	83 c0 01             	add    $0x1,%eax
    1933:	83 e0 07             	and    $0x7,%eax
    1936:	85 c0                	test   %eax,%eax
    1938:	74 1f                	je     1959 <x_print+0x511>
    193a:	48 8b 45 a8          	mov    -0x58(%rbp),%rax
    193e:	0f b7 00             	movzwl (%rax),%eax
    1941:	0f b7 c0             	movzwl %ax,%eax
    1944:	89 c6                	mov    %eax,%esi
    1946:	48 8d 3d 3a 17 00 00 	lea    0x173a(%rip),%rdi        # 3087 <img+0x47>
    194d:	b8 00 00 00 00       	mov    $0x0,%eax
    1952:	e8 29 f7 ff ff       	callq  1080 <printf@plt>
    1957:	eb 1d                	jmp    1976 <x_print+0x52e>
    1959:	48 8b 45 a8          	mov    -0x58(%rbp),%rax
    195d:	0f b7 00             	movzwl (%rax),%eax
    1960:	0f b7 c0             	movzwl %ax,%eax
    1963:	89 c6                	mov    %eax,%esi
    1965:	48 8d 3d 21 17 00 00 	lea    0x1721(%rip),%rdi        # 308d <img+0x4d>
    196c:	b8 00 00 00 00       	mov    $0x0,%eax
    1971:	e8 0a f7 ff ff       	callq  1080 <printf@plt>
    1976:	48 83 45 a8 02       	addq   $0x2,-0x58(%rbp)
    197b:	83 85 7c ff ff ff 01 	addl   $0x1,-0x84(%rbp)
    1982:	8b 85 7c ff ff ff    	mov    -0x84(%rbp),%eax
    1988:	3b 85 6c ff ff ff    	cmp    -0x94(%rbp),%eax
    198e:	0f 8c 71 ff ff ff    	jl     1905 <x_print+0x4bd>
    1994:	8b 85 7c ff ff ff    	mov    -0x84(%rbp),%eax
    199a:	83 e0 07             	and    $0x7,%eax
    199d:	85 c0                	test   %eax,%eax
    199f:	0f 84 a3 08 00 00    	je     2248 <x_print+0xe00>
    19a5:	bf 0a 00 00 00       	mov    $0xa,%edi
    19aa:	e8 c1 f6 ff ff       	callq  1070 <putchar@plt>
    19af:	e9 94 08 00 00       	jmpq   2248 <x_print+0xe00>
    19b4:	80 bd 68 ff ff ff 64 	cmpb   $0x64,-0x98(%rbp)
    19bb:	0f 85 cf 00 00 00    	jne    1a90 <x_print+0x648>
    19c1:	80 bd 64 ff ff ff 68 	cmpb   $0x68,-0x9c(%rbp)
    19c8:	0f 85 c2 00 00 00    	jne    1a90 <x_print+0x648>
    19ce:	48 8b 85 58 ff ff ff 	mov    -0xa8(%rbp),%rax
    19d5:	48 89 45 b0          	mov    %rax,-0x50(%rbp)
    19d9:	c7 85 7c ff ff ff 00 	movl   $0x0,-0x84(%rbp)
    19e0:	00 00 00 
    19e3:	eb 79                	jmp    1a5e <x_print+0x616>
    19e5:	8b 85 7c ff ff ff    	mov    -0x84(%rbp),%eax
    19eb:	83 e0 07             	and    $0x7,%eax
    19ee:	85 c0                	test   %eax,%eax
    19f0:	75 18                	jne    1a0a <x_print+0x5c2>
    19f2:	48 8b 45 b0          	mov    -0x50(%rbp),%rax
    19f6:	48 89 c6             	mov    %rax,%rsi
    19f9:	48 8d 3d 72 16 00 00 	lea    0x1672(%rip),%rdi        # 3072 <img+0x32>
    1a00:	b8 00 00 00 00       	mov    $0x0,%eax
    1a05:	e8 76 f6 ff ff       	callq  1080 <printf@plt>
    1a0a:	8b 85 7c ff ff ff    	mov    -0x84(%rbp),%eax
    1a10:	83 c0 01             	add    $0x1,%eax
    1a13:	83 e0 07             	and    $0x7,%eax
    1a16:	85 c0                	test   %eax,%eax
    1a18:	74 1d                	je     1a37 <x_print+0x5ef>
    1a1a:	48 8b 45 b0          	mov    -0x50(%rbp),%rax
    1a1e:	0f b7 00             	movzwl (%rax),%eax
    1a21:	98                   	cwtl   
    1a22:	89 c6                	mov    %eax,%esi
    1a24:	48 8d 3d 68 16 00 00 	lea    0x1668(%rip),%rdi        # 3093 <img+0x53>
    1a2b:	b8 00 00 00 00       	mov    $0x0,%eax
    1a30:	e8 4b f6 ff ff       	callq  1080 <printf@plt>
    1a35:	eb 1b                	jmp    1a52 <x_print+0x60a>
    1a37:	48 8b 45 b0          	mov    -0x50(%rbp),%rax
    1a3b:	0f b7 00             	movzwl (%rax),%eax
    1a3e:	98                   	cwtl   
    1a3f:	89 c6                	mov    %eax,%esi
    1a41:	48 8d 3d 4f 16 00 00 	lea    0x164f(%rip),%rdi        # 3097 <img+0x57>
    1a48:	b8 00 00 00 00       	mov    $0x0,%eax
    1a4d:	e8 2e f6 ff ff       	callq  1080 <printf@plt>
    1a52:	48 83 45 b0 02       	addq   $0x2,-0x50(%rbp)
    1a57:	83 85 7c ff ff ff 01 	addl   $0x1,-0x84(%rbp)
    1a5e:	8b 85 7c ff ff ff    	mov    -0x84(%rbp),%eax
    1a64:	3b 85 6c ff ff ff    	cmp    -0x94(%rbp),%eax
    1a6a:	0f 8c 75 ff ff ff    	jl     19e5 <x_print+0x59d>
    1a70:	8b 85 7c ff ff ff    	mov    -0x84(%rbp),%eax
    1a76:	83 e0 07             	and    $0x7,%eax
    1a79:	85 c0                	test   %eax,%eax
    1a7b:	0f 84 ca 07 00 00    	je     224b <x_print+0xe03>
    1a81:	bf 0a 00 00 00       	mov    $0xa,%edi
    1a86:	e8 e5 f5 ff ff       	callq  1070 <putchar@plt>
    1a8b:	e9 bb 07 00 00       	jmpq   224b <x_print+0xe03>
    1a90:	80 bd 68 ff ff ff 75 	cmpb   $0x75,-0x98(%rbp)
    1a97:	0f 85 d3 00 00 00    	jne    1b70 <x_print+0x728>
    1a9d:	80 bd 64 ff ff ff 68 	cmpb   $0x68,-0x9c(%rbp)
    1aa4:	0f 85 c6 00 00 00    	jne    1b70 <x_print+0x728>
    1aaa:	48 8b 85 58 ff ff ff 	mov    -0xa8(%rbp),%rax
    1ab1:	48 89 45 b8          	mov    %rax,-0x48(%rbp)
    1ab5:	c7 85 7c ff ff ff 00 	movl   $0x0,-0x84(%rbp)
    1abc:	00 00 00 
    1abf:	eb 7d                	jmp    1b3e <x_print+0x6f6>
    1ac1:	8b 85 7c ff ff ff    	mov    -0x84(%rbp),%eax
    1ac7:	83 e0 07             	and    $0x7,%eax
    1aca:	85 c0                	test   %eax,%eax
    1acc:	75 18                	jne    1ae6 <x_print+0x69e>
    1ace:	48 8b 45 b8          	mov    -0x48(%rbp),%rax
    1ad2:	48 89 c6             	mov    %rax,%rsi
    1ad5:	48 8d 3d 96 15 00 00 	lea    0x1596(%rip),%rdi        # 3072 <img+0x32>
    1adc:	b8 00 00 00 00       	mov    $0x0,%eax
    1ae1:	e8 9a f5 ff ff       	callq  1080 <printf@plt>
    1ae6:	8b 85 7c ff ff ff    	mov    -0x84(%rbp),%eax
    1aec:	83 c0 01             	add    $0x1,%eax
    1aef:	83 e0 07             	and    $0x7,%eax
    1af2:	85 c0                	test   %eax,%eax
    1af4:	74 1f                	je     1b15 <x_print+0x6cd>
    1af6:	48 8b 45 b8          	mov    -0x48(%rbp),%rax
    1afa:	0f b7 00             	movzwl (%rax),%eax
    1afd:	0f b7 c0             	movzwl %ax,%eax
    1b00:	89 c6                	mov    %eax,%esi
    1b02:	48 8d 3d 92 15 00 00 	lea    0x1592(%rip),%rdi        # 309b <img+0x5b>
    1b09:	b8 00 00 00 00       	mov    $0x0,%eax
    1b0e:	e8 6d f5 ff ff       	callq  1080 <printf@plt>
    1b13:	eb 1d                	jmp    1b32 <x_print+0x6ea>
    1b15:	48 8b 45 b8          	mov    -0x48(%rbp),%rax
    1b19:	0f b7 00             	movzwl (%rax),%eax
    1b1c:	0f b7 c0             	movzwl %ax,%eax
    1b1f:	89 c6                	mov    %eax,%esi
    1b21:	48 8d 3d 77 15 00 00 	lea    0x1577(%rip),%rdi        # 309f <img+0x5f>
    1b28:	b8 00 00 00 00       	mov    $0x0,%eax
    1b2d:	e8 4e f5 ff ff       	callq  1080 <printf@plt>
    1b32:	48 83 45 b8 02       	addq   $0x2,-0x48(%rbp)
    1b37:	83 85 7c ff ff ff 01 	addl   $0x1,-0x84(%rbp)
    1b3e:	8b 85 7c ff ff ff    	mov    -0x84(%rbp),%eax
    1b44:	3b 85 6c ff ff ff    	cmp    -0x94(%rbp),%eax
    1b4a:	0f 8c 71 ff ff ff    	jl     1ac1 <x_print+0x679>
    1b50:	8b 85 7c ff ff ff    	mov    -0x84(%rbp),%eax
    1b56:	83 e0 07             	and    $0x7,%eax
    1b59:	85 c0                	test   %eax,%eax
    1b5b:	0f 84 ed 06 00 00    	je     224e <x_print+0xe06>
    1b61:	bf 0a 00 00 00       	mov    $0xa,%edi
    1b66:	e8 05 f5 ff ff       	callq  1070 <putchar@plt>
    1b6b:	e9 de 06 00 00       	jmpq   224e <x_print+0xe06>
    1b70:	80 bd 68 ff ff ff 78 	cmpb   $0x78,-0x98(%rbp)
    1b77:	0f 85 cb 00 00 00    	jne    1c48 <x_print+0x800>
    1b7d:	80 bd 64 ff ff ff 77 	cmpb   $0x77,-0x9c(%rbp)
    1b84:	0f 85 be 00 00 00    	jne    1c48 <x_print+0x800>
    1b8a:	48 8b 85 58 ff ff ff 	mov    -0xa8(%rbp),%rax
    1b91:	48 89 45 c0          	mov    %rax,-0x40(%rbp)
    1b95:	c7 85 7c ff ff ff 00 	movl   $0x0,-0x84(%rbp)
    1b9c:	00 00 00 
    1b9f:	eb 75                	jmp    1c16 <x_print+0x7ce>
    1ba1:	8b 85 7c ff ff ff    	mov    -0x84(%rbp),%eax
    1ba7:	83 e0 03             	and    $0x3,%eax
    1baa:	85 c0                	test   %eax,%eax
    1bac:	75 18                	jne    1bc6 <x_print+0x77e>
    1bae:	48 8b 45 c0          	mov    -0x40(%rbp),%rax
    1bb2:	48 89 c6             	mov    %rax,%rsi
    1bb5:	48 8d 3d b6 14 00 00 	lea    0x14b6(%rip),%rdi        # 3072 <img+0x32>
    1bbc:	b8 00 00 00 00       	mov    $0x0,%eax
    1bc1:	e8 ba f4 ff ff       	callq  1080 <printf@plt>
    1bc6:	8b 85 7c ff ff ff    	mov    -0x84(%rbp),%eax
    1bcc:	83 c0 01             	add    $0x1,%eax
    1bcf:	83 e0 03             	and    $0x3,%eax
    1bd2:	85 c0                	test   %eax,%eax
    1bd4:	74 1b                	je     1bf1 <x_print+0x7a9>
    1bd6:	48 8b 45 c0          	mov    -0x40(%rbp),%rax
    1bda:	8b 00                	mov    (%rax),%eax
    1bdc:	89 c6                	mov    %eax,%esi
    1bde:	48 8d 3d ce 14 00 00 	lea    0x14ce(%rip),%rdi        # 30b3 <img+0x73>
    1be5:	b8 00 00 00 00       	mov    $0x0,%eax
    1bea:	e8 91 f4 ff ff       	callq  1080 <printf@plt>
    1bef:	eb 19                	jmp    1c0a <x_print+0x7c2>
    1bf1:	48 8b 45 c0          	mov    -0x40(%rbp),%rax
    1bf5:	8b 00                	mov    (%rax),%eax
    1bf7:	89 c6                	mov    %eax,%esi
    1bf9:	48 8d 3d bb 14 00 00 	lea    0x14bb(%rip),%rdi        # 30bb <img+0x7b>
    1c00:	b8 00 00 00 00       	mov    $0x0,%eax
    1c05:	e8 76 f4 ff ff       	callq  1080 <printf@plt>
    1c0a:	48 83 45 c0 04       	addq   $0x4,-0x40(%rbp)
    1c0f:	83 85 7c ff ff ff 01 	addl   $0x1,-0x84(%rbp)
    1c16:	8b 85 7c ff ff ff    	mov    -0x84(%rbp),%eax
    1c1c:	3b 85 6c ff ff ff    	cmp    -0x94(%rbp),%eax
    1c22:	0f 8c 79 ff ff ff    	jl     1ba1 <x_print+0x759>
    1c28:	8b 85 7c ff ff ff    	mov    -0x84(%rbp),%eax
    1c2e:	83 e0 03             	and    $0x3,%eax
    1c31:	85 c0                	test   %eax,%eax
    1c33:	0f 84 18 06 00 00    	je     2251 <x_print+0xe09>
    1c39:	bf 0a 00 00 00       	mov    $0xa,%edi
    1c3e:	e8 2d f4 ff ff       	callq  1070 <putchar@plt>
    1c43:	e9 09 06 00 00       	jmpq   2251 <x_print+0xe09>
    1c48:	80 bd 68 ff ff ff 6f 	cmpb   $0x6f,-0x98(%rbp)
    1c4f:	0f 85 cb 00 00 00    	jne    1d20 <x_print+0x8d8>
    1c55:	80 bd 64 ff ff ff 77 	cmpb   $0x77,-0x9c(%rbp)
    1c5c:	0f 85 be 00 00 00    	jne    1d20 <x_print+0x8d8>
    1c62:	48 8b 85 58 ff ff ff 	mov    -0xa8(%rbp),%rax
    1c69:	48 89 45 c8          	mov    %rax,-0x38(%rbp)
    1c6d:	c7 85 7c ff ff ff 00 	movl   $0x0,-0x84(%rbp)
    1c74:	00 00 00 
    1c77:	eb 75                	jmp    1cee <x_print+0x8a6>
    1c79:	8b 85 7c ff ff ff    	mov    -0x84(%rbp),%eax
    1c7f:	83 e0 03             	and    $0x3,%eax
    1c82:	85 c0                	test   %eax,%eax
    1c84:	75 18                	jne    1c9e <x_print+0x856>
    1c86:	48 8b 45 c8          	mov    -0x38(%rbp),%rax
    1c8a:	48 89 c6             	mov    %rax,%rsi
    1c8d:	48 8d 3d de 13 00 00 	lea    0x13de(%rip),%rdi        # 3072 <img+0x32>
    1c94:	b8 00 00 00 00       	mov    $0x0,%eax
    1c99:	e8 e2 f3 ff ff       	callq  1080 <printf@plt>
    1c9e:	8b 85 7c ff ff ff    	mov    -0x84(%rbp),%eax
    1ca4:	83 c0 01             	add    $0x1,%eax
    1ca7:	83 e0 03             	and    $0x3,%eax
    1caa:	85 c0                	test   %eax,%eax
    1cac:	74 1b                	je     1cc9 <x_print+0x881>
    1cae:	48 8b 45 c8          	mov    -0x38(%rbp),%rax
    1cb2:	8b 00                	mov    (%rax),%eax
    1cb4:	89 c6                	mov    %eax,%esi
    1cb6:	48 8d 3d 06 14 00 00 	lea    0x1406(%rip),%rdi        # 30c3 <img+0x83>
    1cbd:	b8 00 00 00 00       	mov    $0x0,%eax
    1cc2:	e8 b9 f3 ff ff       	callq  1080 <printf@plt>
    1cc7:	eb 19                	jmp    1ce2 <x_print+0x89a>
    1cc9:	48 8b 45 c8          	mov    -0x38(%rbp),%rax
    1ccd:	8b 00                	mov    (%rax),%eax
    1ccf:	89 c6                	mov    %eax,%esi
    1cd1:	48 8d 3d f0 13 00 00 	lea    0x13f0(%rip),%rdi        # 30c8 <img+0x88>
    1cd8:	b8 00 00 00 00       	mov    $0x0,%eax
    1cdd:	e8 9e f3 ff ff       	callq  1080 <printf@plt>
    1ce2:	48 83 45 c8 04       	addq   $0x4,-0x38(%rbp)
    1ce7:	83 85 7c ff ff ff 01 	addl   $0x1,-0x84(%rbp)
    1cee:	8b 85 7c ff ff ff    	mov    -0x84(%rbp),%eax
    1cf4:	3b 85 6c ff ff ff    	cmp    -0x94(%rbp),%eax
    1cfa:	0f 8c 79 ff ff ff    	jl     1c79 <x_print+0x831>
    1d00:	8b 85 7c ff ff ff    	mov    -0x84(%rbp),%eax
    1d06:	83 e0 03             	and    $0x3,%eax
    1d09:	85 c0                	test   %eax,%eax
    1d0b:	0f 84 43 05 00 00    	je     2254 <x_print+0xe0c>
    1d11:	bf 0a 00 00 00       	mov    $0xa,%edi
    1d16:	e8 55 f3 ff ff       	callq  1070 <putchar@plt>
    1d1b:	e9 34 05 00 00       	jmpq   2254 <x_print+0xe0c>
    1d20:	80 bd 68 ff ff ff 64 	cmpb   $0x64,-0x98(%rbp)
    1d27:	0f 85 cb 00 00 00    	jne    1df8 <x_print+0x9b0>
    1d2d:	80 bd 64 ff ff ff 77 	cmpb   $0x77,-0x9c(%rbp)
    1d34:	0f 85 be 00 00 00    	jne    1df8 <x_print+0x9b0>
    1d3a:	48 8b 85 58 ff ff ff 	mov    -0xa8(%rbp),%rax
    1d41:	48 89 45 d0          	mov    %rax,-0x30(%rbp)
    1d45:	c7 85 7c ff ff ff 00 	movl   $0x0,-0x84(%rbp)
    1d4c:	00 00 00 
    1d4f:	eb 75                	jmp    1dc6 <x_print+0x97e>
    1d51:	8b 85 7c ff ff ff    	mov    -0x84(%rbp),%eax
    1d57:	83 e0 03             	and    $0x3,%eax
    1d5a:	85 c0                	test   %eax,%eax
    1d5c:	75 18                	jne    1d76 <x_print+0x92e>
    1d5e:	48 8b 45 d0          	mov    -0x30(%rbp),%rax
    1d62:	48 89 c6             	mov    %rax,%rsi
    1d65:	48 8d 3d 06 13 00 00 	lea    0x1306(%rip),%rdi        # 3072 <img+0x32>
    1d6c:	b8 00 00 00 00       	mov    $0x0,%eax
    1d71:	e8 0a f3 ff ff       	callq  1080 <printf@plt>
    1d76:	8b 85 7c ff ff ff    	mov    -0x84(%rbp),%eax
    1d7c:	83 c0 01             	add    $0x1,%eax
    1d7f:	83 e0 03             	and    $0x3,%eax
    1d82:	85 c0                	test   %eax,%eax
    1d84:	74 1b                	je     1da1 <x_print+0x959>
    1d86:	48 8b 45 d0          	mov    -0x30(%rbp),%rax
    1d8a:	8b 00                	mov    (%rax),%eax
    1d8c:	89 c6                	mov    %eax,%esi
    1d8e:	48 8d 3d fe 12 00 00 	lea    0x12fe(%rip),%rdi        # 3093 <img+0x53>
    1d95:	b8 00 00 00 00       	mov    $0x0,%eax
    1d9a:	e8 e1 f2 ff ff       	callq  1080 <printf@plt>
    1d9f:	eb 19                	jmp    1dba <x_print+0x972>
    1da1:	48 8b 45 d0          	mov    -0x30(%rbp),%rax
    1da5:	8b 00                	mov    (%rax),%eax
    1da7:	89 c6                	mov    %eax,%esi
    1da9:	48 8d 3d e7 12 00 00 	lea    0x12e7(%rip),%rdi        # 3097 <img+0x57>
    1db0:	b8 00 00 00 00       	mov    $0x0,%eax
    1db5:	e8 c6 f2 ff ff       	callq  1080 <printf@plt>
    1dba:	48 83 45 d0 04       	addq   $0x4,-0x30(%rbp)
    1dbf:	83 85 7c ff ff ff 01 	addl   $0x1,-0x84(%rbp)
    1dc6:	8b 85 7c ff ff ff    	mov    -0x84(%rbp),%eax
    1dcc:	3b 85 6c ff ff ff    	cmp    -0x94(%rbp),%eax
    1dd2:	0f 8c 79 ff ff ff    	jl     1d51 <x_print+0x909>
    1dd8:	8b 85 7c ff ff ff    	mov    -0x84(%rbp),%eax
    1dde:	83 e0 03             	and    $0x3,%eax
    1de1:	85 c0                	test   %eax,%eax
    1de3:	0f 84 6e 04 00 00    	je     2257 <x_print+0xe0f>
    1de9:	bf 0a 00 00 00       	mov    $0xa,%edi
    1dee:	e8 7d f2 ff ff       	callq  1070 <putchar@plt>
    1df3:	e9 5f 04 00 00       	jmpq   2257 <x_print+0xe0f>
    1df8:	80 bd 68 ff ff ff 75 	cmpb   $0x75,-0x98(%rbp)
    1dff:	0f 85 cb 00 00 00    	jne    1ed0 <x_print+0xa88>
    1e05:	80 bd 64 ff ff ff 77 	cmpb   $0x77,-0x9c(%rbp)
    1e0c:	0f 85 be 00 00 00    	jne    1ed0 <x_print+0xa88>
    1e12:	48 8b 85 58 ff ff ff 	mov    -0xa8(%rbp),%rax
    1e19:	48 89 45 d8          	mov    %rax,-0x28(%rbp)
    1e1d:	c7 85 7c ff ff ff 00 	movl   $0x0,-0x84(%rbp)
    1e24:	00 00 00 
    1e27:	eb 75                	jmp    1e9e <x_print+0xa56>
    1e29:	8b 85 7c ff ff ff    	mov    -0x84(%rbp),%eax
    1e2f:	83 e0 03             	and    $0x3,%eax
    1e32:	85 c0                	test   %eax,%eax
    1e34:	75 18                	jne    1e4e <x_print+0xa06>
    1e36:	48 8b 45 d8          	mov    -0x28(%rbp),%rax
    1e3a:	48 89 c6             	mov    %rax,%rsi
    1e3d:	48 8d 3d 2e 12 00 00 	lea    0x122e(%rip),%rdi        # 3072 <img+0x32>
    1e44:	b8 00 00 00 00       	mov    $0x0,%eax
    1e49:	e8 32 f2 ff ff       	callq  1080 <printf@plt>
    1e4e:	8b 85 7c ff ff ff    	mov    -0x84(%rbp),%eax
    1e54:	83 c0 01             	add    $0x1,%eax
    1e57:	83 e0 03             	and    $0x3,%eax
    1e5a:	85 c0                	test   %eax,%eax
    1e5c:	74 1b                	je     1e79 <x_print+0xa31>
    1e5e:	48 8b 45 d8          	mov    -0x28(%rbp),%rax
    1e62:	8b 00                	mov    (%rax),%eax
    1e64:	89 c6                	mov    %eax,%esi
    1e66:	48 8d 3d 2e 12 00 00 	lea    0x122e(%rip),%rdi        # 309b <img+0x5b>
    1e6d:	b8 00 00 00 00       	mov    $0x0,%eax
    1e72:	e8 09 f2 ff ff       	callq  1080 <printf@plt>
    1e77:	eb 19                	jmp    1e92 <x_print+0xa4a>
    1e79:	48 8b 45 d8          	mov    -0x28(%rbp),%rax
    1e7d:	8b 00                	mov    (%rax),%eax
    1e7f:	89 c6                	mov    %eax,%esi
    1e81:	48 8d 3d 17 12 00 00 	lea    0x1217(%rip),%rdi        # 309f <img+0x5f>
    1e88:	b8 00 00 00 00       	mov    $0x0,%eax
    1e8d:	e8 ee f1 ff ff       	callq  1080 <printf@plt>
    1e92:	48 83 45 d8 04       	addq   $0x4,-0x28(%rbp)
    1e97:	83 85 7c ff ff ff 01 	addl   $0x1,-0x84(%rbp)
    1e9e:	8b 85 7c ff ff ff    	mov    -0x84(%rbp),%eax
    1ea4:	3b 85 6c ff ff ff    	cmp    -0x94(%rbp),%eax
    1eaa:	0f 8c 79 ff ff ff    	jl     1e29 <x_print+0x9e1>
    1eb0:	8b 85 7c ff ff ff    	mov    -0x84(%rbp),%eax
    1eb6:	83 e0 03             	and    $0x3,%eax
    1eb9:	85 c0                	test   %eax,%eax
    1ebb:	0f 84 99 03 00 00    	je     225a <x_print+0xe12>
    1ec1:	bf 0a 00 00 00       	mov    $0xa,%edi
    1ec6:	e8 a5 f1 ff ff       	callq  1070 <putchar@plt>
    1ecb:	e9 8a 03 00 00       	jmpq   225a <x_print+0xe12>
    1ed0:	80 bd 68 ff ff ff 78 	cmpb   $0x78,-0x98(%rbp)
    1ed7:	0f 85 cf 00 00 00    	jne    1fac <x_print+0xb64>
    1edd:	80 bd 64 ff ff ff 67 	cmpb   $0x67,-0x9c(%rbp)
    1ee4:	0f 85 c2 00 00 00    	jne    1fac <x_print+0xb64>
    1eea:	48 8b 85 58 ff ff ff 	mov    -0xa8(%rbp),%rax
    1ef1:	48 89 45 e0          	mov    %rax,-0x20(%rbp)
    1ef5:	c7 85 7c ff ff ff 00 	movl   $0x0,-0x84(%rbp)
    1efc:	00 00 00 
    1eff:	eb 79                	jmp    1f7a <x_print+0xb32>
    1f01:	8b 85 7c ff ff ff    	mov    -0x84(%rbp),%eax
    1f07:	83 e0 01             	and    $0x1,%eax
    1f0a:	85 c0                	test   %eax,%eax
    1f0c:	75 18                	jne    1f26 <x_print+0xade>
    1f0e:	48 8b 45 e0          	mov    -0x20(%rbp),%rax
    1f12:	48 89 c6             	mov    %rax,%rsi
    1f15:	48 8d 3d 56 11 00 00 	lea    0x1156(%rip),%rdi        # 3072 <img+0x32>
    1f1c:	b8 00 00 00 00       	mov    $0x0,%eax
    1f21:	e8 5a f1 ff ff       	callq  1080 <printf@plt>
    1f26:	8b 85 7c ff ff ff    	mov    -0x84(%rbp),%eax
    1f2c:	83 c0 01             	add    $0x1,%eax
    1f2f:	83 e0 01             	and    $0x1,%eax
    1f32:	85 c0                	test   %eax,%eax
    1f34:	74 1d                	je     1f53 <x_print+0xb0b>
    1f36:	48 8b 45 e0          	mov    -0x20(%rbp),%rax
    1f3a:	48 8b 00             	mov    (%rax),%rax
    1f3d:	48 89 c6             	mov    %rax,%rsi
    1f40:	48 8d 3d 86 11 00 00 	lea    0x1186(%rip),%rdi        # 30cd <img+0x8d>
    1f47:	b8 00 00 00 00       	mov    $0x0,%eax
    1f4c:	e8 2f f1 ff ff       	callq  1080 <printf@plt>
    1f51:	eb 1b                	jmp    1f6e <x_print+0xb26>
    1f53:	48 8b 45 e0          	mov    -0x20(%rbp),%rax
    1f57:	48 8b 00             	mov    (%rax),%rax
    1f5a:	48 89 c6             	mov    %rax,%rsi
    1f5d:	48 8d 3d 73 11 00 00 	lea    0x1173(%rip),%rdi        # 30d7 <img+0x97>
    1f64:	b8 00 00 00 00       	mov    $0x0,%eax
    1f69:	e8 12 f1 ff ff       	callq  1080 <printf@plt>
    1f6e:	48 83 45 e0 08       	addq   $0x8,-0x20(%rbp)
    1f73:	83 85 7c ff ff ff 01 	addl   $0x1,-0x84(%rbp)
    1f7a:	8b 85 7c ff ff ff    	mov    -0x84(%rbp),%eax
    1f80:	3b 85 6c ff ff ff    	cmp    -0x94(%rbp),%eax
    1f86:	0f 8c 75 ff ff ff    	jl     1f01 <x_print+0xab9>
    1f8c:	8b 85 7c ff ff ff    	mov    -0x84(%rbp),%eax
    1f92:	83 e0 01             	and    $0x1,%eax
    1f95:	85 c0                	test   %eax,%eax
    1f97:	0f 84 c0 02 00 00    	je     225d <x_print+0xe15>
    1f9d:	bf 0a 00 00 00       	mov    $0xa,%edi
    1fa2:	e8 c9 f0 ff ff       	callq  1070 <putchar@plt>
    1fa7:	e9 b1 02 00 00       	jmpq   225d <x_print+0xe15>
    1fac:	80 bd 68 ff ff ff 6f 	cmpb   $0x6f,-0x98(%rbp)
    1fb3:	0f 85 cf 00 00 00    	jne    2088 <x_print+0xc40>
    1fb9:	80 bd 64 ff ff ff 67 	cmpb   $0x67,-0x9c(%rbp)
    1fc0:	0f 85 c2 00 00 00    	jne    2088 <x_print+0xc40>
    1fc6:	48 8b 85 58 ff ff ff 	mov    -0xa8(%rbp),%rax
    1fcd:	48 89 45 e8          	mov    %rax,-0x18(%rbp)
    1fd1:	c7 85 7c ff ff ff 00 	movl   $0x0,-0x84(%rbp)
    1fd8:	00 00 00 
    1fdb:	eb 79                	jmp    2056 <x_print+0xc0e>
    1fdd:	8b 85 7c ff ff ff    	mov    -0x84(%rbp),%eax
    1fe3:	83 e0 01             	and    $0x1,%eax
    1fe6:	85 c0                	test   %eax,%eax
    1fe8:	75 18                	jne    2002 <x_print+0xbba>
    1fea:	48 8b 45 e8          	mov    -0x18(%rbp),%rax
    1fee:	48 89 c6             	mov    %rax,%rsi
    1ff1:	48 8d 3d 7a 10 00 00 	lea    0x107a(%rip),%rdi        # 3072 <img+0x32>
    1ff8:	b8 00 00 00 00       	mov    $0x0,%eax
    1ffd:	e8 7e f0 ff ff       	callq  1080 <printf@plt>
    2002:	8b 85 7c ff ff ff    	mov    -0x84(%rbp),%eax
    2008:	83 c0 01             	add    $0x1,%eax
    200b:	83 e0 01             	and    $0x1,%eax
    200e:	85 c0                	test   %eax,%eax
    2010:	74 1d                	je     202f <x_print+0xbe7>
    2012:	48 8b 45 e8          	mov    -0x18(%rbp),%rax
    2016:	48 8b 00             	mov    (%rax),%rax
    2019:	48 89 c6             	mov    %rax,%rsi
    201c:	48 8d 3d be 10 00 00 	lea    0x10be(%rip),%rdi        # 30e1 <img+0xa1>
    2023:	b8 00 00 00 00       	mov    $0x0,%eax
    2028:	e8 53 f0 ff ff       	callq  1080 <printf@plt>
    202d:	eb 1b                	jmp    204a <x_print+0xc02>
    202f:	48 8b 45 e8          	mov    -0x18(%rbp),%rax
    2033:	48 8b 00             	mov    (%rax),%rax
    2036:	48 89 c6             	mov    %rax,%rsi
    2039:	48 8d 3d a7 10 00 00 	lea    0x10a7(%rip),%rdi        # 30e7 <img+0xa7>
    2040:	b8 00 00 00 00       	mov    $0x0,%eax
    2045:	e8 36 f0 ff ff       	callq  1080 <printf@plt>
    204a:	48 83 45 e8 08       	addq   $0x8,-0x18(%rbp)
    204f:	83 85 7c ff ff ff 01 	addl   $0x1,-0x84(%rbp)
    2056:	8b 85 7c ff ff ff    	mov    -0x84(%rbp),%eax
    205c:	3b 85 6c ff ff ff    	cmp    -0x94(%rbp),%eax
    2062:	0f 8c 75 ff ff ff    	jl     1fdd <x_print+0xb95>
    2068:	8b 85 7c ff ff ff    	mov    -0x84(%rbp),%eax
    206e:	83 e0 01             	and    $0x1,%eax
    2071:	85 c0                	test   %eax,%eax
    2073:	0f 84 e7 01 00 00    	je     2260 <x_print+0xe18>
    2079:	bf 0a 00 00 00       	mov    $0xa,%edi
    207e:	e8 ed ef ff ff       	callq  1070 <putchar@plt>
    2083:	e9 d8 01 00 00       	jmpq   2260 <x_print+0xe18>
    2088:	80 bd 68 ff ff ff 64 	cmpb   $0x64,-0x98(%rbp)
    208f:	0f 85 cf 00 00 00    	jne    2164 <x_print+0xd1c>
    2095:	80 bd 64 ff ff ff 67 	cmpb   $0x67,-0x9c(%rbp)
    209c:	0f 85 c2 00 00 00    	jne    2164 <x_print+0xd1c>
    20a2:	48 8b 85 58 ff ff ff 	mov    -0xa8(%rbp),%rax
    20a9:	48 89 45 f0          	mov    %rax,-0x10(%rbp)
    20ad:	c7 85 7c ff ff ff 00 	movl   $0x0,-0x84(%rbp)
    20b4:	00 00 00 
    20b7:	eb 79                	jmp    2132 <x_print+0xcea>
    20b9:	8b 85 7c ff ff ff    	mov    -0x84(%rbp),%eax
    20bf:	83 e0 01             	and    $0x1,%eax
    20c2:	85 c0                	test   %eax,%eax
    20c4:	75 18                	jne    20de <x_print+0xc96>
    20c6:	48 8b 45 f0          	mov    -0x10(%rbp),%rax
    20ca:	48 89 c6             	mov    %rax,%rsi
    20cd:	48 8d 3d 9e 0f 00 00 	lea    0xf9e(%rip),%rdi        # 3072 <img+0x32>
    20d4:	b8 00 00 00 00       	mov    $0x0,%eax
    20d9:	e8 a2 ef ff ff       	callq  1080 <printf@plt>
    20de:	8b 85 7c ff ff ff    	mov    -0x84(%rbp),%eax
    20e4:	83 c0 01             	add    $0x1,%eax
    20e7:	83 e0 01             	and    $0x1,%eax
    20ea:	85 c0                	test   %eax,%eax
    20ec:	74 1d                	je     210b <x_print+0xcc3>
    20ee:	48 8b 45 f0          	mov    -0x10(%rbp),%rax
    20f2:	48 8b 00             	mov    (%rax),%rax
    20f5:	48 89 c6             	mov    %rax,%rsi
    20f8:	48 8d 3d ee 0f 00 00 	lea    0xfee(%rip),%rdi        # 30ed <img+0xad>
    20ff:	b8 00 00 00 00       	mov    $0x0,%eax
    2104:	e8 77 ef ff ff       	callq  1080 <printf@plt>
    2109:	eb 1b                	jmp    2126 <x_print+0xcde>
    210b:	48 8b 45 f0          	mov    -0x10(%rbp),%rax
    210f:	48 8b 00             	mov    (%rax),%rax
    2112:	48 89 c6             	mov    %rax,%rsi
    2115:	48 8d 3d d6 0f 00 00 	lea    0xfd6(%rip),%rdi        # 30f2 <img+0xb2>
    211c:	b8 00 00 00 00       	mov    $0x0,%eax
    2121:	e8 5a ef ff ff       	callq  1080 <printf@plt>
    2126:	48 83 45 f0 08       	addq   $0x8,-0x10(%rbp)
    212b:	83 85 7c ff ff ff 01 	addl   $0x1,-0x84(%rbp)
    2132:	8b 85 7c ff ff ff    	mov    -0x84(%rbp),%eax
    2138:	3b 85 6c ff ff ff    	cmp    -0x94(%rbp),%eax
    213e:	0f 8c 75 ff ff ff    	jl     20b9 <x_print+0xc71>
    2144:	8b 85 7c ff ff ff    	mov    -0x84(%rbp),%eax
    214a:	83 e0 01             	and    $0x1,%eax
    214d:	85 c0                	test   %eax,%eax
    214f:	0f 84 0e 01 00 00    	je     2263 <x_print+0xe1b>
    2155:	bf 0a 00 00 00       	mov    $0xa,%edi
    215a:	e8 11 ef ff ff       	callq  1070 <putchar@plt>
    215f:	e9 ff 00 00 00       	jmpq   2263 <x_print+0xe1b>
    2164:	80 bd 68 ff ff ff 75 	cmpb   $0x75,-0x98(%rbp)
    216b:	0f 85 f3 00 00 00    	jne    2264 <x_print+0xe1c>
    2171:	80 bd 64 ff ff ff 67 	cmpb   $0x67,-0x9c(%rbp)
    2178:	0f 85 e6 00 00 00    	jne    2264 <x_print+0xe1c>
    217e:	48 8b 85 58 ff ff ff 	mov    -0xa8(%rbp),%rax
    2185:	48 89 45 f8          	mov    %rax,-0x8(%rbp)
    2189:	c7 85 7c ff ff ff 00 	movl   $0x0,-0x84(%rbp)
    2190:	00 00 00 
    2193:	eb 79                	jmp    220e <x_print+0xdc6>
    2195:	8b 85 7c ff ff ff    	mov    -0x84(%rbp),%eax
    219b:	83 e0 01             	and    $0x1,%eax
    219e:	85 c0                	test   %eax,%eax
    21a0:	75 18                	jne    21ba <x_print+0xd72>
    21a2:	48 8b 45 f8          	mov    -0x8(%rbp),%rax
    21a6:	48 89 c6             	mov    %rax,%rsi
    21a9:	48 8d 3d c2 0e 00 00 	lea    0xec2(%rip),%rdi        # 3072 <img+0x32>
    21b0:	b8 00 00 00 00       	mov    $0x0,%eax
    21b5:	e8 c6 ee ff ff       	callq  1080 <printf@plt>
    21ba:	8b 85 7c ff ff ff    	mov    -0x84(%rbp),%eax
    21c0:	83 c0 01             	add    $0x1,%eax
    21c3:	83 e0 01             	and    $0x1,%eax
    21c6:	85 c0                	test   %eax,%eax
    21c8:	74 1d                	je     21e7 <x_print+0xd9f>
    21ca:	48 8b 45 f8          	mov    -0x8(%rbp),%rax
    21ce:	48 8b 00             	mov    (%rax),%rax
    21d1:	48 89 c6             	mov    %rax,%rsi
    21d4:	48 8d 3d 1c 0f 00 00 	lea    0xf1c(%rip),%rdi        # 30f7 <img+0xb7>
    21db:	b8 00 00 00 00       	mov    $0x0,%eax
    21e0:	e8 9b ee ff ff       	callq  1080 <printf@plt>
    21e5:	eb 1b                	jmp    2202 <x_print+0xdba>
    21e7:	48 8b 45 f8          	mov    -0x8(%rbp),%rax
    21eb:	48 8b 00             	mov    (%rax),%rax
    21ee:	48 89 c6             	mov    %rax,%rsi
    21f1:	48 8d 3d 04 0f 00 00 	lea    0xf04(%rip),%rdi        # 30fc <img+0xbc>
    21f8:	b8 00 00 00 00       	mov    $0x0,%eax
    21fd:	e8 7e ee ff ff       	callq  1080 <printf@plt>
    2202:	48 83 45 f8 08       	addq   $0x8,-0x8(%rbp)
    2207:	83 85 7c ff ff ff 01 	addl   $0x1,-0x84(%rbp)
    220e:	8b 85 7c ff ff ff    	mov    -0x84(%rbp),%eax
    2214:	3b 85 6c ff ff ff    	cmp    -0x94(%rbp),%eax
    221a:	0f 8c 75 ff ff ff    	jl     2195 <x_print+0xd4d>
    2220:	8b 85 7c ff ff ff    	mov    -0x84(%rbp),%eax
    2226:	83 e0 01             	and    $0x1,%eax
    2229:	85 c0                	test   %eax,%eax
    222b:	74 37                	je     2264 <x_print+0xe1c>
    222d:	bf 0a 00 00 00       	mov    $0xa,%edi
    2232:	e8 39 ee ff ff       	callq  1070 <putchar@plt>
    2237:	eb 2b                	jmp    2264 <x_print+0xe1c>
    2239:	90                   	nop
    223a:	eb 28                	jmp    2264 <x_print+0xe1c>
    223c:	90                   	nop
    223d:	eb 25                	jmp    2264 <x_print+0xe1c>
    223f:	90                   	nop
    2240:	eb 22                	jmp    2264 <x_print+0xe1c>
    2242:	90                   	nop
    2243:	eb 1f                	jmp    2264 <x_print+0xe1c>
    2245:	90                   	nop
    2246:	eb 1c                	jmp    2264 <x_print+0xe1c>
    2248:	90                   	nop
    2249:	eb 19                	jmp    2264 <x_print+0xe1c>
    224b:	90                   	nop
    224c:	eb 16                	jmp    2264 <x_print+0xe1c>
    224e:	90                   	nop
    224f:	eb 13                	jmp    2264 <x_print+0xe1c>
    2251:	90                   	nop
    2252:	eb 10                	jmp    2264 <x_print+0xe1c>
    2254:	90                   	nop
    2255:	eb 0d                	jmp    2264 <x_print+0xe1c>
    2257:	90                   	nop
    2258:	eb 0a                	jmp    2264 <x_print+0xe1c>
    225a:	90                   	nop
    225b:	eb 07                	jmp    2264 <x_print+0xe1c>
    225d:	90                   	nop
    225e:	eb 04                	jmp    2264 <x_print+0xe1c>
    2260:	90                   	nop
    2261:	eb 01                	jmp    2264 <x_print+0xe1c>
    2263:	90                   	nop
    2264:	90                   	nop
    2265:	c9                   	leaveq 
    2266:	c3                   	retq   
    2267:	66 0f 1f 84 00 00 00 	nopw   0x0(%rax,%rax,1)
    226e:	00 00 

0000000000002270 <__libc_csu_init>:
    2270:	f3 0f 1e fa          	endbr64 
    2274:	41 57                	push   %r15
    2276:	4c 8d 3d 2b 2b 00 00 	lea    0x2b2b(%rip),%r15        # 4da8 <__frame_dummy_init_array_entry>
    227d:	41 56                	push   %r14
    227f:	49 89 d6             	mov    %rdx,%r14
    2282:	41 55                	push   %r13
    2284:	49 89 f5             	mov    %rsi,%r13
    2287:	41 54                	push   %r12
    2289:	41 89 fc             	mov    %edi,%r12d
    228c:	55                   	push   %rbp
    228d:	48 8d 2d 1c 2b 00 00 	lea    0x2b1c(%rip),%rbp        # 4db0 <__do_global_dtors_aux_fini_array_entry>
    2294:	53                   	push   %rbx
    2295:	4c 29 fd             	sub    %r15,%rbp
    2298:	48 83 ec 08          	sub    $0x8,%rsp
    229c:	e8 5f ed ff ff       	callq  1000 <_init>
    22a1:	48 c1 fd 03          	sar    $0x3,%rbp
    22a5:	74 1f                	je     22c6 <__libc_csu_init+0x56>
    22a7:	31 db                	xor    %ebx,%ebx
    22a9:	0f 1f 80 00 00 00 00 	nopl   0x0(%rax)
    22b0:	4c 89 f2             	mov    %r14,%rdx
    22b3:	4c 89 ee             	mov    %r13,%rsi
    22b6:	44 89 e7             	mov    %r12d,%edi
    22b9:	41 ff 14 df          	callq  *(%r15,%rbx,8)
    22bd:	48 83 c3 01          	add    $0x1,%rbx
    22c1:	48 39 dd             	cmp    %rbx,%rbp
    22c4:	75 ea                	jne    22b0 <__libc_csu_init+0x40>
    22c6:	48 83 c4 08          	add    $0x8,%rsp
    22ca:	5b                   	pop    %rbx
    22cb:	5d                   	pop    %rbp
    22cc:	41 5c                	pop    %r12
    22ce:	41 5d                	pop    %r13
    22d0:	41 5e                	pop    %r14
    22d2:	41 5f                	pop    %r15
    22d4:	c3                   	retq   
    22d5:	66 66 2e 0f 1f 84 00 	data16 nopw %cs:0x0(%rax,%rax,1)
    22dc:	00 00 00 00 

00000000000022e0 <__libc_csu_fini>:
    22e0:	f3 0f 1e fa          	endbr64 
    22e4:	c3                   	retq   

Disassembly of section .fini:

00000000000022e8 <_fini>:
    22e8:	f3 0f 1e fa          	endbr64 
    22ec:	48 83 ec 08          	sub    $0x8,%rsp
    22f0:	48 83 c4 08          	add    $0x8,%rsp
    22f4:	c3                   	retq   
_______________________________________________________________
_______________________________________________________________

fmt_print:     file format elf64-x86-64


Disassembly of section .init:

0000000000001000 <_init>:
    1000:	f3 0f 1e fa          	endbr64 
    1004:	48 83 ec 08          	sub    $0x8,%rsp
    1008:	48 8b 05 d9 2f 00 00 	mov    0x2fd9(%rip),%rax        # 3fe8 <__gmon_start__>
    100f:	48 85 c0             	test   %rax,%rax
    1012:	74 02                	je     1016 <_init+0x16>
    1014:	ff d0                	callq  *%rax
    1016:	48 83 c4 08          	add    $0x8,%rsp
    101a:	c3                   	retq   

Disassembly of section .plt:

0000000000001020 <.plt>:
    1020:	ff 35 92 2f 00 00    	pushq  0x2f92(%rip)        # 3fb8 <_GLOBAL_OFFSET_TABLE_+0x8>
    1026:	f2 ff 25 93 2f 00 00 	bnd jmpq *0x2f93(%rip)        # 3fc0 <_GLOBAL_OFFSET_TABLE_+0x10>
    102d:	0f 1f 00             	nopl   (%rax)
    1030:	f3 0f 1e fa          	endbr64 
    1034:	68 00 00 00 00       	pushq  $0x0
    1039:	f2 e9 e1 ff ff ff    	bnd jmpq 1020 <.plt>
    103f:	90                   	nop
    1040:	f3 0f 1e fa          	endbr64 
    1044:	68 01 00 00 00       	pushq  $0x1
    1049:	f2 e9 d1 ff ff ff    	bnd jmpq 1020 <.plt>
    104f:	90                   	nop

Disassembly of section .plt.got:

0000000000001050 <__cxa_finalize@plt>:
    1050:	f3 0f 1e fa          	endbr64 
    1054:	f2 ff 25 9d 2f 00 00 	bnd jmpq *0x2f9d(%rip)        # 3ff8 <__cxa_finalize@GLIBC_2.2.5>
    105b:	0f 1f 44 00 00       	nopl   0x0(%rax,%rax,1)

Disassembly of section .plt.sec:

0000000000001060 <putchar@plt>:
    1060:	f3 0f 1e fa          	endbr64 
    1064:	f2 ff 25 5d 2f 00 00 	bnd jmpq *0x2f5d(%rip)        # 3fc8 <putchar@GLIBC_2.2.5>
    106b:	0f 1f 44 00 00       	nopl   0x0(%rax,%rax,1)

0000000000001070 <printf@plt>:
    1070:	f3 0f 1e fa          	endbr64 
    1074:	f2 ff 25 55 2f 00 00 	bnd jmpq *0x2f55(%rip)        # 3fd0 <printf@GLIBC_2.2.5>
    107b:	0f 1f 44 00 00       	nopl   0x0(%rax,%rax,1)

Disassembly of section .text:

0000000000001080 <_start>:
    1080:	f3 0f 1e fa          	endbr64 
    1084:	31 ed                	xor    %ebp,%ebp
    1086:	49 89 d1             	mov    %rdx,%r9
    1089:	5e                   	pop    %rsi
    108a:	48 89 e2             	mov    %rsp,%rdx
    108d:	48 83 e4 f0          	and    $0xfffffffffffffff0,%rsp
    1091:	50                   	push   %rax
    1092:	54                   	push   %rsp
    1093:	4c 8d 05 96 06 00 00 	lea    0x696(%rip),%r8        # 1730 <__libc_csu_fini>
    109a:	48 8d 0d 1f 06 00 00 	lea    0x61f(%rip),%rcx        # 16c0 <__libc_csu_init>
    10a1:	48 8d 3d e2 05 00 00 	lea    0x5e2(%rip),%rdi        # 168a <main>
    10a8:	ff 15 32 2f 00 00    	callq  *0x2f32(%rip)        # 3fe0 <__libc_start_main@GLIBC_2.2.5>
    10ae:	f4                   	hlt    
    10af:	90                   	nop

00000000000010b0 <deregister_tm_clones>:
    10b0:	48 8d 3d 71 2f 00 00 	lea    0x2f71(%rip),%rdi        # 4028 <__TMC_END__>
    10b7:	48 8d 05 6a 2f 00 00 	lea    0x2f6a(%rip),%rax        # 4028 <__TMC_END__>
    10be:	48 39 f8             	cmp    %rdi,%rax
    10c1:	74 15                	je     10d8 <deregister_tm_clones+0x28>
    10c3:	48 8b 05 0e 2f 00 00 	mov    0x2f0e(%rip),%rax        # 3fd8 <_ITM_deregisterTMCloneTable>
    10ca:	48 85 c0             	test   %rax,%rax
    10cd:	74 09                	je     10d8 <deregister_tm_clones+0x28>
    10cf:	ff e0                	jmpq   *%rax
    10d1:	0f 1f 80 00 00 00 00 	nopl   0x0(%rax)
    10d8:	c3                   	retq   
    10d9:	0f 1f 80 00 00 00 00 	nopl   0x0(%rax)

00000000000010e0 <register_tm_clones>:
    10e0:	48 8d 3d 41 2f 00 00 	lea    0x2f41(%rip),%rdi        # 4028 <__TMC_END__>
    10e7:	48 8d 35 3a 2f 00 00 	lea    0x2f3a(%rip),%rsi        # 4028 <__TMC_END__>
    10ee:	48 29 fe             	sub    %rdi,%rsi
    10f1:	48 89 f0             	mov    %rsi,%rax
    10f4:	48 c1 ee 3f          	shr    $0x3f,%rsi
    10f8:	48 c1 f8 03          	sar    $0x3,%rax
    10fc:	48 01 c6             	add    %rax,%rsi
    10ff:	48 d1 fe             	sar    %rsi
    1102:	74 14                	je     1118 <register_tm_clones+0x38>
    1104:	48 8b 05 e5 2e 00 00 	mov    0x2ee5(%rip),%rax        # 3ff0 <_ITM_registerTMCloneTable>
    110b:	48 85 c0             	test   %rax,%rax
    110e:	74 08                	je     1118 <register_tm_clones+0x38>
    1110:	ff e0                	jmpq   *%rax
    1112:	66 0f 1f 44 00 00    	nopw   0x0(%rax,%rax,1)
    1118:	c3                   	retq   
    1119:	0f 1f 80 00 00 00 00 	nopl   0x0(%rax)

0000000000001120 <__do_global_dtors_aux>:
    1120:	f3 0f 1e fa          	endbr64 
    1124:	80 3d fd 2e 00 00 00 	cmpb   $0x0,0x2efd(%rip)        # 4028 <__TMC_END__>
    112b:	75 2b                	jne    1158 <__do_global_dtors_aux+0x38>
    112d:	55                   	push   %rbp
    112e:	48 83 3d c2 2e 00 00 	cmpq   $0x0,0x2ec2(%rip)        # 3ff8 <__cxa_finalize@GLIBC_2.2.5>
    1135:	00 
    1136:	48 89 e5             	mov    %rsp,%rbp
    1139:	74 0c                	je     1147 <__do_global_dtors_aux+0x27>
    113b:	48 8b 3d c6 2e 00 00 	mov    0x2ec6(%rip),%rdi        # 4008 <__dso_handle>
    1142:	e8 09 ff ff ff       	callq  1050 <__cxa_finalize@plt>
    1147:	e8 64 ff ff ff       	callq  10b0 <deregister_tm_clones>
    114c:	c6 05 d5 2e 00 00 01 	movb   $0x1,0x2ed5(%rip)        # 4028 <__TMC_END__>
    1153:	5d                   	pop    %rbp
    1154:	c3                   	retq   
    1155:	0f 1f 00             	nopl   (%rax)
    1158:	c3                   	retq   
    1159:	0f 1f 80 00 00 00 00 	nopl   0x0(%rax)

0000000000001160 <frame_dummy>:
    1160:	f3 0f 1e fa          	endbr64 
    1164:	e9 77 ff ff ff       	jmpq   10e0 <register_tm_clones>

0000000000001169 <fmt_print>:
    1169:	f3 0f 1e fa          	endbr64 
    116d:	55                   	push   %rbp
    116e:	48 89 e5             	mov    %rsp,%rbp
    1171:	48 83 ec 10          	sub    $0x10,%rsp
    1175:	89 f9                	mov    %edi,%ecx
    1177:	89 f0                	mov    %esi,%eax
    1179:	48 89 55 f0          	mov    %rdx,-0x10(%rbp)
    117d:	89 ca                	mov    %ecx,%edx
    117f:	88 55 fc             	mov    %dl,-0x4(%rbp)
    1182:	88 45 f8             	mov    %al,-0x8(%rbp)
    1185:	0f be 45 fc          	movsbl -0x4(%rbp),%eax
    1189:	83 f8 78             	cmp    $0x78,%eax
    118c:	74 32                	je     11c0 <fmt_print+0x57>
    118e:	83 f8 78             	cmp    $0x78,%eax
    1191:	0f 8f 9a 01 00 00    	jg     1331 <fmt_print+0x1c8>
    1197:	83 f8 75             	cmp    $0x75,%eax
    119a:	0f 84 4e 01 00 00    	je     12ee <fmt_print+0x185>
    11a0:	83 f8 75             	cmp    $0x75,%eax
    11a3:	0f 8f 88 01 00 00    	jg     1331 <fmt_print+0x1c8>
    11a9:	83 f8 64             	cmp    $0x64,%eax
    11ac:	0f 84 f8 00 00 00    	je     12aa <fmt_print+0x141>
    11b2:	83 f8 6f             	cmp    $0x6f,%eax
    11b5:	0f 84 a5 00 00 00    	je     1260 <fmt_print+0xf7>
    11bb:	e9 71 01 00 00       	jmpq   1331 <fmt_print+0x1c8>
    11c0:	80 7d f8 62          	cmpb   $0x62,-0x8(%rbp)
    11c4:	75 22                	jne    11e8 <fmt_print+0x7f>
    11c6:	48 8b 45 f0          	mov    -0x10(%rbp),%rax
    11ca:	0f b6 00             	movzbl (%rax),%eax
    11cd:	0f be c0             	movsbl %al,%eax
    11d0:	89 c6                	mov    %eax,%esi
    11d2:	48 8d 3d 2b 0e 00 00 	lea    0xe2b(%rip),%rdi        # 2004 <_IO_stdin_used+0x4>
    11d9:	b8 00 00 00 00       	mov    $0x0,%eax
    11de:	e8 8d fe ff ff       	callq  1070 <printf@plt>
    11e3:	e9 49 01 00 00       	jmpq   1331 <fmt_print+0x1c8>
    11e8:	80 7d f8 68          	cmpb   $0x68,-0x8(%rbp)
    11ec:	75 22                	jne    1210 <fmt_print+0xa7>
    11ee:	48 8b 45 f0          	mov    -0x10(%rbp),%rax
    11f2:	0f b6 00             	movzbl (%rax),%eax
    11f5:	0f be c0             	movsbl %al,%eax
    11f8:	89 c6                	mov    %eax,%esi
    11fa:	48 8d 3d 0a 0e 00 00 	lea    0xe0a(%rip),%rdi        # 200b <_IO_stdin_used+0xb>
    1201:	b8 00 00 00 00       	mov    $0x0,%eax
    1206:	e8 65 fe ff ff       	callq  1070 <printf@plt>
    120b:	e9 21 01 00 00       	jmpq   1331 <fmt_print+0x1c8>
    1210:	80 7d f8 77          	cmpb   $0x77,-0x8(%rbp)
    1214:	75 22                	jne    1238 <fmt_print+0xcf>
    1216:	48 8b 45 f0          	mov    -0x10(%rbp),%rax
    121a:	0f b6 00             	movzbl (%rax),%eax
    121d:	0f be c0             	movsbl %al,%eax
    1220:	89 c6                	mov    %eax,%esi
    1222:	48 8d 3d e9 0d 00 00 	lea    0xde9(%rip),%rdi        # 2012 <_IO_stdin_used+0x12>
    1229:	b8 00 00 00 00       	mov    $0x0,%eax
    122e:	e8 3d fe ff ff       	callq  1070 <printf@plt>
    1233:	e9 f9 00 00 00       	jmpq   1331 <fmt_print+0x1c8>
    1238:	80 7d f8 67          	cmpb   $0x67,-0x8(%rbp)
    123c:	75 22                	jne    1260 <fmt_print+0xf7>
    123e:	48 8b 45 f0          	mov    -0x10(%rbp),%rax
    1242:	0f b6 00             	movzbl (%rax),%eax
    1245:	0f be c0             	movsbl %al,%eax
    1248:	89 c6                	mov    %eax,%esi
    124a:	48 8d 3d c8 0d 00 00 	lea    0xdc8(%rip),%rdi        # 2019 <_IO_stdin_used+0x19>
    1251:	b8 00 00 00 00       	mov    $0x0,%eax
    1256:	e8 15 fe ff ff       	callq  1070 <printf@plt>
    125b:	e9 d1 00 00 00       	jmpq   1331 <fmt_print+0x1c8>
    1260:	80 7d f8 67          	cmpb   $0x67,-0x8(%rbp)
    1264:	75 22                	jne    1288 <fmt_print+0x11f>
    1266:	48 8b 45 f0          	mov    -0x10(%rbp),%rax
    126a:	0f b6 00             	movzbl (%rax),%eax
    126d:	0f be c0             	movsbl %al,%eax
    1270:	89 c6                	mov    %eax,%esi
    1272:	48 8d 3d a9 0d 00 00 	lea    0xda9(%rip),%rdi        # 2022 <_IO_stdin_used+0x22>
    1279:	b8 00 00 00 00       	mov    $0x0,%eax
    127e:	e8 ed fd ff ff       	callq  1070 <printf@plt>
    1283:	e9 a9 00 00 00       	jmpq   1331 <fmt_print+0x1c8>
    1288:	48 8b 45 f0          	mov    -0x10(%rbp),%rax
    128c:	0f b6 00             	movzbl (%rax),%eax
    128f:	0f be c0             	movsbl %al,%eax
    1292:	89 c6                	mov    %eax,%esi
    1294:	48 8d 3d 8c 0d 00 00 	lea    0xd8c(%rip),%rdi        # 2027 <_IO_stdin_used+0x27>
    129b:	b8 00 00 00 00       	mov    $0x0,%eax
    12a0:	e8 cb fd ff ff       	callq  1070 <printf@plt>
    12a5:	e9 87 00 00 00       	jmpq   1331 <fmt_print+0x1c8>
    12aa:	80 7d f8 67          	cmpb   $0x67,-0x8(%rbp)
    12ae:	75 1f                	jne    12cf <fmt_print+0x166>
    12b0:	48 8b 45 f0          	mov    -0x10(%rbp),%rax
    12b4:	0f b6 00             	movzbl (%rax),%eax
    12b7:	0f be c0             	movsbl %al,%eax
    12ba:	89 c6                	mov    %eax,%esi
    12bc:	48 8d 3d 69 0d 00 00 	lea    0xd69(%rip),%rdi        # 202c <_IO_stdin_used+0x2c>
    12c3:	b8 00 00 00 00       	mov    $0x0,%eax
    12c8:	e8 a3 fd ff ff       	callq  1070 <printf@plt>
    12cd:	eb 62                	jmp    1331 <fmt_print+0x1c8>
    12cf:	48 8b 45 f0          	mov    -0x10(%rbp),%rax
    12d3:	0f b6 00             	movzbl (%rax),%eax
    12d6:	0f be c0             	movsbl %al,%eax
    12d9:	89 c6                	mov    %eax,%esi
    12db:	48 8d 3d 4e 0d 00 00 	lea    0xd4e(%rip),%rdi        # 2030 <_IO_stdin_used+0x30>
    12e2:	b8 00 00 00 00       	mov    $0x0,%eax
    12e7:	e8 84 fd ff ff       	callq  1070 <printf@plt>
    12ec:	eb 43                	jmp    1331 <fmt_print+0x1c8>
    12ee:	80 7d f8 67          	cmpb   $0x67,-0x8(%rbp)
    12f2:	75 1f                	jne    1313 <fmt_print+0x1aa>
    12f4:	48 8b 45 f0          	mov    -0x10(%rbp),%rax
    12f8:	0f b6 00             	movzbl (%rax),%eax
    12fb:	0f be c0             	movsbl %al,%eax
    12fe:	89 c6                	mov    %eax,%esi
    1300:	48 8d 3d 2c 0d 00 00 	lea    0xd2c(%rip),%rdi        # 2033 <_IO_stdin_used+0x33>
    1307:	b8 00 00 00 00       	mov    $0x0,%eax
    130c:	e8 5f fd ff ff       	callq  1070 <printf@plt>
    1311:	eb 1e                	jmp    1331 <fmt_print+0x1c8>
    1313:	48 8b 45 f0          	mov    -0x10(%rbp),%rax
    1317:	0f b6 00             	movzbl (%rax),%eax
    131a:	0f be c0             	movsbl %al,%eax
    131d:	89 c6                	mov    %eax,%esi
    131f:	48 8d 3d 11 0d 00 00 	lea    0xd11(%rip),%rdi        # 2037 <_IO_stdin_used+0x37>
    1326:	b8 00 00 00 00       	mov    $0x0,%eax
    132b:	e8 40 fd ff ff       	callq  1070 <printf@plt>
    1330:	90                   	nop
    1331:	90                   	nop
    1332:	c9                   	leaveq 
    1333:	c3                   	retq   

0000000000001334 <fmt_output>:
    1334:	f3 0f 1e fa          	endbr64 
    1338:	55                   	push   %rbp
    1339:	48 89 e5             	mov    %rsp,%rbp
    133c:	48 83 ec 50          	sub    $0x50,%rsp
    1340:	89 7d cc             	mov    %edi,-0x34(%rbp)
    1343:	89 d0                	mov    %edx,%eax
    1345:	48 89 4d b8          	mov    %rcx,-0x48(%rbp)
    1349:	89 f2                	mov    %esi,%edx
    134b:	88 55 c8             	mov    %dl,-0x38(%rbp)
    134e:	88 45 c4             	mov    %al,-0x3c(%rbp)
    1351:	0f be 45 c4          	movsbl -0x3c(%rbp),%eax
    1355:	83 f8 77             	cmp    $0x77,%eax
    1358:	74 2d                	je     1387 <fmt_output+0x53>
    135a:	83 f8 77             	cmp    $0x77,%eax
    135d:	7f 39                	jg     1398 <fmt_output+0x64>
    135f:	83 f8 68             	cmp    $0x68,%eax
    1362:	74 1a                	je     137e <fmt_output+0x4a>
    1364:	83 f8 68             	cmp    $0x68,%eax
    1367:	7f 2f                	jg     1398 <fmt_output+0x64>
    1369:	83 f8 62             	cmp    $0x62,%eax
    136c:	74 07                	je     1375 <fmt_output+0x41>
    136e:	83 f8 67             	cmp    $0x67,%eax
    1371:	74 1d                	je     1390 <fmt_output+0x5c>
    1373:	eb 23                	jmp    1398 <fmt_output+0x64>
    1375:	c7 45 d8 08 00 00 00 	movl   $0x8,-0x28(%rbp)
    137c:	eb 1a                	jmp    1398 <fmt_output+0x64>
    137e:	c7 45 d8 08 00 00 00 	movl   $0x8,-0x28(%rbp)
    1385:	eb 11                	jmp    1398 <fmt_output+0x64>
    1387:	c7 45 d8 04 00 00 00 	movl   $0x4,-0x28(%rbp)
    138e:	eb 08                	jmp    1398 <fmt_output+0x64>
    1390:	c7 45 d8 02 00 00 00 	movl   $0x2,-0x28(%rbp)
    1397:	90                   	nop
    1398:	0f be 45 c4          	movsbl -0x3c(%rbp),%eax
    139c:	83 f8 77             	cmp    $0x77,%eax
    139f:	0f 84 88 01 00 00    	je     152d <fmt_output+0x1f9>
    13a5:	83 f8 77             	cmp    $0x77,%eax
    13a8:	0f 8f d9 02 00 00    	jg     1687 <fmt_output+0x353>
    13ae:	83 f8 68             	cmp    $0x68,%eax
    13b1:	0f 84 c9 00 00 00    	je     1480 <fmt_output+0x14c>
    13b7:	83 f8 68             	cmp    $0x68,%eax
    13ba:	0f 8f c7 02 00 00    	jg     1687 <fmt_output+0x353>
    13c0:	83 f8 62             	cmp    $0x62,%eax
    13c3:	74 0e                	je     13d3 <fmt_output+0x9f>
    13c5:	83 f8 67             	cmp    $0x67,%eax
    13c8:	0f 84 0c 02 00 00    	je     15da <fmt_output+0x2a6>
    13ce:	e9 b4 02 00 00       	jmpq   1687 <fmt_output+0x353>
    13d3:	c7 45 dc 00 00 00 00 	movl   $0x0,-0x24(%rbp)
    13da:	8b 45 dc             	mov    -0x24(%rbp),%eax
    13dd:	3b 45 cc             	cmp    -0x34(%rbp),%eax
    13e0:	0f 8d 9a 00 00 00    	jge    1480 <fmt_output+0x14c>
    13e6:	48 8b 45 b8          	mov    -0x48(%rbp),%rax
    13ea:	48 89 45 e0          	mov    %rax,-0x20(%rbp)
    13ee:	8b 45 dc             	mov    -0x24(%rbp),%eax
    13f1:	99                   	cltd   
    13f2:	f7 7d d8             	idivl  -0x28(%rbp)
    13f5:	89 d0                	mov    %edx,%eax
    13f7:	85 c0                	test   %eax,%eax
    13f9:	75 18                	jne    1413 <fmt_output+0xdf>
    13fb:	48 8b 45 e0          	mov    -0x20(%rbp),%rax
    13ff:	48 89 c6             	mov    %rax,%rsi
    1402:	48 8d 3d 31 0c 00 00 	lea    0xc31(%rip),%rdi        # 203a <_IO_stdin_used+0x3a>
    1409:	b8 00 00 00 00       	mov    $0x0,%eax
    140e:	e8 5d fc ff ff       	callq  1070 <printf@plt>
    1413:	8b 45 dc             	mov    -0x24(%rbp),%eax
    1416:	83 c0 01             	add    $0x1,%eax
    1419:	99                   	cltd   
    141a:	f7 7d d8             	idivl  -0x28(%rbp)
    141d:	89 d0                	mov    %edx,%eax
    141f:	85 c0                	test   %eax,%eax
    1421:	74 21                	je     1444 <fmt_output+0x110>
    1423:	0f be 4d c4          	movsbl -0x3c(%rbp),%ecx
    1427:	0f be 45 c8          	movsbl -0x38(%rbp),%eax
    142b:	48 8b 55 e0          	mov    -0x20(%rbp),%rdx
    142f:	89 ce                	mov    %ecx,%esi
    1431:	89 c7                	mov    %eax,%edi
    1433:	e8 31 fd ff ff       	callq  1169 <fmt_print>
    1438:	bf 09 00 00 00       	mov    $0x9,%edi
    143d:	e8 1e fc ff ff       	callq  1060 <putchar@plt>
    1442:	eb 1f                	jmp    1463 <fmt_output+0x12f>
    1444:	0f be 4d c4          	movsbl -0x3c(%rbp),%ecx
    1448:	0f be 45 c8          	movsbl -0x38(%rbp),%eax
    144c:	48 8b 55 e0          	mov    -0x20(%rbp),%rdx
    1450:	89 ce                	mov    %ecx,%esi
    1452:	89 c7                	mov    %eax,%edi
    1454:	e8 10 fd ff ff       	callq  1169 <fmt_print>
    1459:	bf 0a 00 00 00       	mov    $0xa,%edi
    145e:	e8 fd fb ff ff       	callq  1060 <putchar@plt>
    1463:	48 83 45 e0 01       	addq   $0x1,-0x20(%rbp)
    1468:	8b 45 dc             	mov    -0x24(%rbp),%eax
    146b:	99                   	cltd   
    146c:	f7 7d d8             	idivl  -0x28(%rbp)
    146f:	89 d0                	mov    %edx,%eax
    1471:	85 c0                	test   %eax,%eax
    1473:	74 0a                	je     147f <fmt_output+0x14b>
    1475:	bf 0a 00 00 00       	mov    $0xa,%edi
    147a:	e8 e1 fb ff ff       	callq  1060 <putchar@plt>
    147f:	90                   	nop
    1480:	c7 45 dc 00 00 00 00 	movl   $0x0,-0x24(%rbp)
    1487:	8b 45 dc             	mov    -0x24(%rbp),%eax
    148a:	3b 45 cc             	cmp    -0x34(%rbp),%eax
    148d:	0f 8d 9a 00 00 00    	jge    152d <fmt_output+0x1f9>
    1493:	48 8b 45 b8          	mov    -0x48(%rbp),%rax
    1497:	48 89 45 e8          	mov    %rax,-0x18(%rbp)
    149b:	8b 45 dc             	mov    -0x24(%rbp),%eax
    149e:	99                   	cltd   
    149f:	f7 7d d8             	idivl  -0x28(%rbp)
    14a2:	89 d0                	mov    %edx,%eax
    14a4:	85 c0                	test   %eax,%eax
    14a6:	75 18                	jne    14c0 <fmt_output+0x18c>
    14a8:	48 8b 45 e8          	mov    -0x18(%rbp),%rax
    14ac:	48 89 c6             	mov    %rax,%rsi
    14af:	48 8d 3d 84 0b 00 00 	lea    0xb84(%rip),%rdi        # 203a <_IO_stdin_used+0x3a>
    14b6:	b8 00 00 00 00       	mov    $0x0,%eax
    14bb:	e8 b0 fb ff ff       	callq  1070 <printf@plt>
    14c0:	8b 45 dc             	mov    -0x24(%rbp),%eax
    14c3:	83 c0 01             	add    $0x1,%eax
    14c6:	99                   	cltd   
    14c7:	f7 7d d8             	idivl  -0x28(%rbp)
    14ca:	89 d0                	mov    %edx,%eax
    14cc:	85 c0                	test   %eax,%eax
    14ce:	74 21                	je     14f1 <fmt_output+0x1bd>
    14d0:	0f be 4d c4          	movsbl -0x3c(%rbp),%ecx
    14d4:	0f be 45 c8          	movsbl -0x38(%rbp),%eax
    14d8:	48 8b 55 e8          	mov    -0x18(%rbp),%rdx
    14dc:	89 ce                	mov    %ecx,%esi
    14de:	89 c7                	mov    %eax,%edi
    14e0:	e8 84 fc ff ff       	callq  1169 <fmt_print>
    14e5:	bf 09 00 00 00       	mov    $0x9,%edi
    14ea:	e8 71 fb ff ff       	callq  1060 <putchar@plt>
    14ef:	eb 1f                	jmp    1510 <fmt_output+0x1dc>
    14f1:	0f be 4d c4          	movsbl -0x3c(%rbp),%ecx
    14f5:	0f be 45 c8          	movsbl -0x38(%rbp),%eax
    14f9:	48 8b 55 e8          	mov    -0x18(%rbp),%rdx
    14fd:	89 ce                	mov    %ecx,%esi
    14ff:	89 c7                	mov    %eax,%edi
    1501:	e8 63 fc ff ff       	callq  1169 <fmt_print>
    1506:	bf 0a 00 00 00       	mov    $0xa,%edi
    150b:	e8 50 fb ff ff       	callq  1060 <putchar@plt>
    1510:	48 83 45 e8 02       	addq   $0x2,-0x18(%rbp)
    1515:	8b 45 dc             	mov    -0x24(%rbp),%eax
    1518:	99                   	cltd   
    1519:	f7 7d d8             	idivl  -0x28(%rbp)
    151c:	89 d0                	mov    %edx,%eax
    151e:	85 c0                	test   %eax,%eax
    1520:	74 0a                	je     152c <fmt_output+0x1f8>
    1522:	bf 0a 00 00 00       	mov    $0xa,%edi
    1527:	e8 34 fb ff ff       	callq  1060 <putchar@plt>
    152c:	90                   	nop
    152d:	c7 45 dc 00 00 00 00 	movl   $0x0,-0x24(%rbp)
    1534:	8b 45 dc             	mov    -0x24(%rbp),%eax
    1537:	3b 45 cc             	cmp    -0x34(%rbp),%eax
    153a:	0f 8d 9a 00 00 00    	jge    15da <fmt_output+0x2a6>
    1540:	48 8b 45 b8          	mov    -0x48(%rbp),%rax
    1544:	48 89 45 f0          	mov    %rax,-0x10(%rbp)
    1548:	8b 45 dc             	mov    -0x24(%rbp),%eax
    154b:	99                   	cltd   
    154c:	f7 7d d8             	idivl  -0x28(%rbp)
    154f:	89 d0                	mov    %edx,%eax
    1551:	85 c0                	test   %eax,%eax
    1553:	75 18                	jne    156d <fmt_output+0x239>
    1555:	48 8b 45 f0          	mov    -0x10(%rbp),%rax
    1559:	48 89 c6             	mov    %rax,%rsi
    155c:	48 8d 3d d7 0a 00 00 	lea    0xad7(%rip),%rdi        # 203a <_IO_stdin_used+0x3a>
    1563:	b8 00 00 00 00       	mov    $0x0,%eax
    1568:	e8 03 fb ff ff       	callq  1070 <printf@plt>
    156d:	8b 45 dc             	mov    -0x24(%rbp),%eax
    1570:	83 c0 01             	add    $0x1,%eax
    1573:	99                   	cltd   
    1574:	f7 7d d8             	idivl  -0x28(%rbp)
    1577:	89 d0                	mov    %edx,%eax
    1579:	85 c0                	test   %eax,%eax
    157b:	74 21                	je     159e <fmt_output+0x26a>
    157d:	0f be 4d c4          	movsbl -0x3c(%rbp),%ecx
    1581:	0f be 45 c8          	movsbl -0x38(%rbp),%eax
    1585:	48 8b 55 f0          	mov    -0x10(%rbp),%rdx
    1589:	89 ce                	mov    %ecx,%esi
    158b:	89 c7                	mov    %eax,%edi
    158d:	e8 d7 fb ff ff       	callq  1169 <fmt_print>
    1592:	bf 09 00 00 00       	mov    $0x9,%edi
    1597:	e8 c4 fa ff ff       	callq  1060 <putchar@plt>
    159c:	eb 1f                	jmp    15bd <fmt_output+0x289>
    159e:	0f be 4d c4          	movsbl -0x3c(%rbp),%ecx
    15a2:	0f be 45 c8          	movsbl -0x38(%rbp),%eax
    15a6:	48 8b 55 f0          	mov    -0x10(%rbp),%rdx
    15aa:	89 ce                	mov    %ecx,%esi
    15ac:	89 c7                	mov    %eax,%edi
    15ae:	e8 b6 fb ff ff       	callq  1169 <fmt_print>
    15b3:	bf 0a 00 00 00       	mov    $0xa,%edi
    15b8:	e8 a3 fa ff ff       	callq  1060 <putchar@plt>
    15bd:	48 83 45 f0 04       	addq   $0x4,-0x10(%rbp)
    15c2:	8b 45 dc             	mov    -0x24(%rbp),%eax
    15c5:	99                   	cltd   
    15c6:	f7 7d d8             	idivl  -0x28(%rbp)
    15c9:	89 d0                	mov    %edx,%eax
    15cb:	85 c0                	test   %eax,%eax
    15cd:	74 0a                	je     15d9 <fmt_output+0x2a5>
    15cf:	bf 0a 00 00 00       	mov    $0xa,%edi
    15d4:	e8 87 fa ff ff       	callq  1060 <putchar@plt>
    15d9:	90                   	nop
    15da:	c7 45 dc 00 00 00 00 	movl   $0x0,-0x24(%rbp)
    15e1:	8b 45 dc             	mov    -0x24(%rbp),%eax
    15e4:	3b 45 cc             	cmp    -0x34(%rbp),%eax
    15e7:	0f 8d 9a 00 00 00    	jge    1687 <fmt_output+0x353>
    15ed:	48 8b 45 b8          	mov    -0x48(%rbp),%rax
    15f1:	48 89 45 f8          	mov    %rax,-0x8(%rbp)
    15f5:	8b 45 dc             	mov    -0x24(%rbp),%eax
    15f8:	99                   	cltd   
    15f9:	f7 7d d8             	idivl  -0x28(%rbp)
    15fc:	89 d0                	mov    %edx,%eax
    15fe:	85 c0                	test   %eax,%eax
    1600:	75 18                	jne    161a <fmt_output+0x2e6>
    1602:	48 8b 45 f8          	mov    -0x8(%rbp),%rax
    1606:	48 89 c6             	mov    %rax,%rsi
    1609:	48 8d 3d 2a 0a 00 00 	lea    0xa2a(%rip),%rdi        # 203a <_IO_stdin_used+0x3a>
    1610:	b8 00 00 00 00       	mov    $0x0,%eax
    1615:	e8 56 fa ff ff       	callq  1070 <printf@plt>
    161a:	8b 45 dc             	mov    -0x24(%rbp),%eax
    161d:	83 c0 01             	add    $0x1,%eax
    1620:	99                   	cltd   
    1621:	f7 7d d8             	idivl  -0x28(%rbp)
    1624:	89 d0                	mov    %edx,%eax
    1626:	85 c0                	test   %eax,%eax
    1628:	74 21                	je     164b <fmt_output+0x317>
    162a:	0f be 4d c4          	movsbl -0x3c(%rbp),%ecx
    162e:	0f be 45 c8          	movsbl -0x38(%rbp),%eax
    1632:	48 8b 55 f8          	mov    -0x8(%rbp),%rdx
    1636:	89 ce                	mov    %ecx,%esi
    1638:	89 c7                	mov    %eax,%edi
    163a:	e8 2a fb ff ff       	callq  1169 <fmt_print>
    163f:	bf 09 00 00 00       	mov    $0x9,%edi
    1644:	e8 17 fa ff ff       	callq  1060 <putchar@plt>
    1649:	eb 1f                	jmp    166a <fmt_output+0x336>
    164b:	0f be 4d c4          	movsbl -0x3c(%rbp),%ecx
    164f:	0f be 45 c8          	movsbl -0x38(%rbp),%eax
    1653:	48 8b 55 f8          	mov    -0x8(%rbp),%rdx
    1657:	89 ce                	mov    %ecx,%esi
    1659:	89 c7                	mov    %eax,%edi
    165b:	e8 09 fb ff ff       	callq  1169 <fmt_print>
    1660:	bf 0a 00 00 00       	mov    $0xa,%edi
    1665:	e8 f6 f9 ff ff       	callq  1060 <putchar@plt>
    166a:	48 83 45 f8 08       	addq   $0x8,-0x8(%rbp)
    166f:	8b 45 dc             	mov    -0x24(%rbp),%eax
    1672:	99                   	cltd   
    1673:	f7 7d d8             	idivl  -0x28(%rbp)
    1676:	89 d0                	mov    %edx,%eax
    1678:	85 c0                	test   %eax,%eax
    167a:	74 0a                	je     1686 <fmt_output+0x352>
    167c:	bf 0a 00 00 00       	mov    $0xa,%edi
    1681:	e8 da f9 ff ff       	callq  1060 <putchar@plt>
    1686:	90                   	nop
    1687:	90                   	nop
    1688:	c9                   	leaveq 
    1689:	c3                   	retq   

000000000000168a <main>:
    168a:	f3 0f 1e fa          	endbr64 
    168e:	55                   	push   %rbp
    168f:	48 89 e5             	mov    %rsp,%rbp
    1692:	48 8d 0d 77 29 00 00 	lea    0x2977(%rip),%rcx        # 4010 <img>
    1699:	ba 77 00 00 00       	mov    $0x77,%edx
    169e:	be 78 00 00 00       	mov    $0x78,%esi
    16a3:	bf 05 00 00 00       	mov    $0x5,%edi
    16a8:	e8 87 fc ff ff       	callq  1334 <fmt_output>
    16ad:	b8 00 00 00 00       	mov    $0x0,%eax
    16b2:	5d                   	pop    %rbp
    16b3:	c3                   	retq   
    16b4:	66 2e 0f 1f 84 00 00 	nopw   %cs:0x0(%rax,%rax,1)
    16bb:	00 00 00 
    16be:	66 90                	xchg   %ax,%ax

00000000000016c0 <__libc_csu_init>:
    16c0:	f3 0f 1e fa          	endbr64 
    16c4:	41 57                	push   %r15
    16c6:	4c 8d 3d e3 26 00 00 	lea    0x26e3(%rip),%r15        # 3db0 <__frame_dummy_init_array_entry>
    16cd:	41 56                	push   %r14
    16cf:	49 89 d6             	mov    %rdx,%r14
    16d2:	41 55                	push   %r13
    16d4:	49 89 f5             	mov    %rsi,%r13
    16d7:	41 54                	push   %r12
    16d9:	41 89 fc             	mov    %edi,%r12d
    16dc:	55                   	push   %rbp
    16dd:	48 8d 2d d4 26 00 00 	lea    0x26d4(%rip),%rbp        # 3db8 <__do_global_dtors_aux_fini_array_entry>
    16e4:	53                   	push   %rbx
    16e5:	4c 29 fd             	sub    %r15,%rbp
    16e8:	48 83 ec 08          	sub    $0x8,%rsp
    16ec:	e8 0f f9 ff ff       	callq  1000 <_init>
    16f1:	48 c1 fd 03          	sar    $0x3,%rbp
    16f5:	74 1f                	je     1716 <__libc_csu_init+0x56>
    16f7:	31 db                	xor    %ebx,%ebx
    16f9:	0f 1f 80 00 00 00 00 	nopl   0x0(%rax)
    1700:	4c 89 f2             	mov    %r14,%rdx
    1703:	4c 89 ee             	mov    %r13,%rsi
    1706:	44 89 e7             	mov    %r12d,%edi
    1709:	41 ff 14 df          	callq  *(%r15,%rbx,8)
    170d:	48 83 c3 01          	add    $0x1,%rbx
    1711:	48 39 dd             	cmp    %rbx,%rbp
    1714:	75 ea                	jne    1700 <__libc_csu_init+0x40>
    1716:	48 83 c4 08          	add    $0x8,%rsp
    171a:	5b                   	pop    %rbx
    171b:	5d                   	pop    %rbp
    171c:	41 5c                	pop    %r12
    171e:	41 5d                	pop    %r13
    1720:	41 5e                	pop    %r14
    1722:	41 5f                	pop    %r15
    1724:	c3                   	retq   
    1725:	66 66 2e 0f 1f 84 00 	data16 nopw %cs:0x0(%rax,%rax,1)
    172c:	00 00 00 00 

0000000000001730 <__libc_csu_fini>:
    1730:	f3 0f 1e fa          	endbr64 
    1734:	c3                   	retq   

Disassembly of section .fini:

0000000000001738 <_fini>:
    1738:	f3 0f 1e fa          	endbr64 
    173c:	48 83 ec 08          	sub    $0x8,%rsp
    1740:	48 83 c4 08          	add    $0x8,%rsp
    1744:	c3                   	retq   
_______________________________________________________________
_______________________________________________________________
